
/home/carlos/thesis/wrkdir/src/bao-hypervisor/bin/qemu-aarch64-virt/linux_pcie/bao.elf:     file format elf64-littleaarch64


Disassembly of section .boot:

0000fd8000000000 <_el2_entry>:
	 *		x1 -> contains image base load address
	 * Register x9 is reserved to indicate if the current cpu is master (negated).
	 * Register x1 is reserved to contain the cpu root page table address.
	 */

	mrs  x0, MPIDR_EL1
    fd8000000000:	d53800a0 	mrs	x0, mpidr_el1
	adrp x1, _image_start
    fd8000000004:	90000001 	adrp	x1, fd8000000000 <_el2_entry>

	/*
	 * Install vector table physical address early, in case exception occurs during this
	 * initialization.
	 */
	adr	x3, _hyp_vector_table
    fd8000000008:	10007fc3 	adr	x3, fd8000001000 <_hyp_vector_table>
	msr	VBAR_EL2, x3
    fd800000000c:	d51cc003 	msr	vbar_el2, x3
	 * only considering two levels of affinity.
	 * TODO: this should be done some other way. We shouldn't depend on the platform description
	 * this early in the initialization.
	 */

	mov x3, x0, lsr #8
    fd8000000010:	aa4023e3 	orr	x3, xzr, x0, lsr #8
	and x3, x3, 0xff
    fd8000000014:	92401c63 	and	x3, x3, #0xff
	adr x4, platform
    fd8000000018:	10094cc4 	adr	x4, fd80000129b0 <platform>
	ldr x4, [x4, PLAT_ARCH_OFF+PLAT_ARCH_CLUSTERS_OFF+PLAT_CLUSTERS_CORES_NUM_OFF]
    fd800000001c:	f9413c84 	ldr	x4, [x4, #632]
	ldr x5, =BAO_VAS_BASE
    fd8000000020:	58000a85 	ldr	x5, fd8000000170 <set_loop+0x30>
	sub x4, x4, x5
    fd8000000024:	cb050084 	sub	x4, x4, x5
	add x4, x4, x1
    fd8000000028:	8b010084 	add	x4, x4, x1
	mov x5, xzr
    fd800000002c:	aa1f03e5 	mov	x5, xzr
	mov x7, xzr
    fd8000000030:	aa1f03e7 	mov	x7, xzr
1:
	cmp x5, x3
    fd8000000034:	eb0300bf 	cmp	x5, x3
	b.ge	2f
    fd8000000038:	540000ca 	b.ge	fd8000000050 <_el2_entry+0x50>  // b.tcont
#if PLAT_CLUSTERS_CORES_NUM_SIZE != 8
#error "struct platform cluster core_num field type size is not 8"
#endif
	ldr w6, [x4]
    fd800000003c:	b9400086 	ldr	w6, [x4]
	add x4, x4, #PLAT_CLUSTERS_CORES_NUM_SIZE
    fd8000000040:	91002084 	add	x4, x4, #0x8
	add x5, x5, #1
    fd8000000044:	910004a5 	add	x5, x5, #0x1
	add x7, x7, x6
    fd8000000048:	8b0600e7 	add	x7, x7, x6
	b 	1b
    fd800000004c:	17fffffa 	b	fd8000000034 <_el2_entry+0x34>
2:
	and x0, x0, #0xff
    fd8000000050:	92401c00 	and	x0, x0, #0xff
	add x0, x0, x7
    fd8000000054:	8b070000 	add	x0, x0, x7
 */
 .pushsection .data
_master_set:
	.8byte 	0
.popsection
	mov x5, #1
    fd8000000058:	d2800025 	mov	x5, #0x1                   	// #1
	adr	x3, _master_set
    fd800000005c:	1008fd63 	adr	x3, fd8000012008 <_master_set>

0000fd8000000060 <_set_master_cpu>:
_set_master_cpu:
	ldr w9, [x3]
    fd8000000060:	b9400069 	ldr	w9, [x3]
	cbnz w9, 1f
    fd8000000064:	35000089 	cbnz	w9, fd8000000074 <_set_master_cpu+0x14>
	str w5, [x3]
    fd8000000068:	b9000065 	str	w5, [x3]
#endif
	adr x3, CPU_MASTER
    fd800000006c:	100916e3 	adr	x3, fd8000012348 <CPU_MASTER>
	str x0, [x3]
    fd8000000070:	f9000060 	str	x0, [x3]
	 * TODO: bring the system to a well known state. This includes disabling the MMU (done),
	 * all caches (missing i$), BP and others... and invalidating them.
	 */

	/* boot_clear stack pointer to avoid unaligned SP exceptions during boot */
	mov x3, xzr
    fd8000000074:	aa1f03e3 	mov	x3, xzr
	mov sp, x3
    fd8000000078:	9100007f 	mov	sp, x3

	/* Invalidate caches */
	/* Should we also clean ? */
	mov x19, x0
    fd800000007c:	aa0003f3 	mov	x19, x0
	mov x20, x1
    fd8000000080:	aa0103f4 	mov	x20, x1

	mov x0, #0
    fd8000000084:	d2800000 	mov	x0, #0x0                   	// #0
	bl	boot_cache_invalidate
    fd8000000088:	94000023 	bl	fd8000000114 <boot_cache_invalidate>
	cbnz x9, 1f
    fd800000008c:	b5000069 	cbnz	x9, fd8000000098 <_set_master_cpu+0x38>
	mov x0, #2
    fd8000000090:	d2800040 	mov	x0, #0x2                   	// #2
	bl	boot_cache_invalidate
    fd8000000094:	94000020 	bl	fd8000000114 <boot_cache_invalidate>
1:
	mov x0,	x19
    fd8000000098:	aa1303e0 	mov	x0, x19
	mov x1,	x20
    fd800000009c:	aa1403e1 	mov	x1, x20

	ic iallu
    fd80000000a0:	d508751f 	ic	iallu

	bl boot_arch_profile_init
    fd80000000a4:	94000041 	bl	fd80000001a8 <boot_arch_profile_init>

	mov x3, xzr
    fd80000000a8:	aa1f03e3 	mov	x3, xzr
	msr CPTR_EL2, x3
    fd80000000ac:	d51c1143 	msr	cptr_el2, x3

	/* set up cpu stack */
	mov x3, SPSel_SP
    fd80000000b0:	d2800023 	mov	x3, #0x1                   	// #1
	msr SPSEL, x3
    fd80000000b4:	d5184203 	msr	spsel, x3
	mrs x3, tpidr_el2
    fd80000000b8:	d53cd043 	mrs	x3, tpidr_el2
	ldr x4, =(CPU_STACK_OFF + CPU_STACK_SIZE)
    fd80000000bc:	580005e4 	ldr	x4, fd8000000178 <set_loop+0x38>
	add x3, x3, x4
    fd80000000c0:	8b040063 	add	x3, x3, x4
	mov SP, x3
    fd80000000c4:	9100007f 	mov	sp, x3


	/* If this is bsp (cpu 0) boot_clear bss */
	cbnz x9, 1f
    fd80000000c8:	b50000e9 	cbnz	x9, fd80000000e4 <_set_master_cpu+0x84>
	ldr	x16, =_bss_start
    fd80000000cc:	580005b0 	ldr	x16, fd8000000180 <set_loop+0x40>
	ldr	x17, =_bss_end
    fd80000000d0:	580005d1 	ldr	x17, fd8000000188 <set_loop+0x48>
	bl	boot_clear
    fd80000000d4:	9400000b 	bl	fd8000000100 <boot_clear>

	adr x5, _boot_barrier
    fd80000000d8:	1008f945 	adr	x5, fd8000012000 <_boot_barrier>
	mov x4, #2
    fd80000000dc:	d2800044 	mov	x4, #0x2                   	// #2
	stlr x4, [x5]
    fd80000000e0:	c89ffca4 	stlr	x4, [x5]

1:
	/* wait for bsp to finish boot_clearing bss */
	ldr x4, =_boot_barrier
    fd80000000e4:	58000564 	ldr	x4, fd8000000190 <set_loop+0x50>
2:
	ldar x5, [x4]
    fd80000000e8:	c8dffc85 	ldar	x5, [x4]
	cmp x5, #2
    fd80000000ec:	f10008bf 	cmp	x5, #0x2
	b.lt 2b
    fd80000000f0:	54ffffcb 	b.lt	fd80000000e8 <_set_master_cpu+0x88>  // b.tstop

	isb
    fd80000000f4:	d5033fdf 	isb

	b init
    fd80000000f8:	1400266a 	b	fd8000009aa0 <init>

	/* This point should never be reached */
	b	.
    fd80000000fc:	14000000 	b	fd80000000fc <_set_master_cpu+0x9c>

0000fd8000000100 <boot_clear>:

.global boot_clear
.func boot_clear
boot_clear:
2:
	cmp	x16, x17
    fd8000000100:	eb11021f 	cmp	x16, x17
	b.ge 1f
    fd8000000104:	5400006a 	b.ge	fd8000000110 <boot_clear+0x10>  // b.tcont
	str	xzr, [x16], #8
    fd8000000108:	f800861f 	str	xzr, [x16], #8
	b	2b
    fd800000010c:	17fffffd 	b	fd8000000100 <boot_clear>
1:
	ret
    fd8000000110:	d65f03c0 	ret

0000fd8000000114 <boot_cache_invalidate>:
 * x0 - cache level to be invalidated (0 - dl1$, 1 - il1$, 2 - l2$)
 */
.global boot_cache_invalidate
.func boot_cache_invalidate
boot_cache_invalidate:
	msr csselr_el1, x0
    fd8000000114:	d51a0000 	msr	csselr_el1, x0
	mrs x4, ccsidr_el1 // read cache size id.
    fd8000000118:	d5390004 	mrs	x4, ccsidr_el1
	and x1, x4, #0x7
    fd800000011c:	92400881 	and	x1, x4, #0x7
	add x1, x1, #0x4 // x1 = cache line size.
    fd8000000120:	91001021 	add	x1, x1, #0x4
	ldr x3, =0x7fff
    fd8000000124:	580003a3 	ldr	x3, fd8000000198 <set_loop+0x58>
	and x2, x3, x4, lsr #13 // x2 = cache set number – 1.
    fd8000000128:	8a443462 	and	x2, x3, x4, lsr #13
	ldr x3, =0x3ff
    fd800000012c:	580003a3 	ldr	x3, fd80000001a0 <set_loop+0x60>
	and x3, x3, x4, lsr #3 // x3 = cache associativity number – 1.
    fd8000000130:	8a440c63 	and	x3, x3, x4, lsr #3
	clz w4, w3 // x4 = way position in the cisw instruction.
    fd8000000134:	5ac01064 	clz	w4, w3
	mov x5, #0 // x5 = way counter way_loop.
    fd8000000138:	d2800005 	mov	x5, #0x0                   	// #0

0000fd800000013c <way_loop>:
way_loop:
	mov x6, #0 // x6 = set counter set_loop.
    fd800000013c:	d2800006 	mov	x6, #0x0                   	// #0

0000fd8000000140 <set_loop>:
set_loop:
	lsl x7, x5, x4
    fd8000000140:	9ac420a7 	lsl	x7, x5, x4
	orr x7, x0, x7 // set way.
    fd8000000144:	aa070007 	orr	x7, x0, x7
	lsl x8, x6, x1
    fd8000000148:	9ac120c8 	lsl	x8, x6, x1
	orr x7, x7, x8 // set set.
    fd800000014c:	aa0800e7 	orr	x7, x7, x8
	dc cisw, x7 // clean and invalidate cache line.
    fd8000000150:	d5087e47 	dc	cisw, x7
	add x6, x6, #1 // increment set counter.
    fd8000000154:	910004c6 	add	x6, x6, #0x1
	cmp x6, x2 // last set reached yet?
    fd8000000158:	eb0200df 	cmp	x6, x2
	ble set_loop // if not, iterate set_loop,
    fd800000015c:	54ffff2d 	b.le	fd8000000140 <set_loop>
	add x5, x5, #1 // else, next way.
    fd8000000160:	910004a5 	add	x5, x5, #0x1
	cmp x5, x3 // last way reached yet?
    fd8000000164:	eb0300bf 	cmp	x5, x3
	ble way_loop // if not, iterate way_loop
    fd8000000168:	54fffead 	b.le	fd800000013c <way_loop>
	ret
    fd800000016c:	d65f03c0 	ret
    fd8000000170:	00000000 	.word	0x00000000
    fd8000000174:	0000fd80 	.word	0x0000fd80
    fd8000000178:	00002000 	.word	0x00002000
    fd800000017c:	00000000 	.word	0x00000000
    fd8000000180:	00013000 	.word	0x00013000
    fd8000000184:	0000fd80 	.word	0x0000fd80
    fd8000000188:	0001bd98 	.word	0x0001bd98
    fd800000018c:	0000fd80 	.word	0x0000fd80
    fd8000000190:	00012000 	.word	0x00012000
    fd8000000194:	0000fd80 	.word	0x0000fd80
    fd8000000198:	00007fff 	.word	0x00007fff
    fd800000019c:	00000000 	.word	0x00000000
    fd80000001a0:	000003ff 	.word	0x000003ff
    fd80000001a4:	00000000 	.word	0x00000000

0000fd80000001a8 <boot_arch_profile_init>:

.section ".boot", "ax"
.global boot_arch_profile_init
boot_arch_profile_init:

    mov x20, x30
    fd80000001a8:	aa1e03f4 	mov	x20, x30

	/*
     * Register x18 contains the size of the allocated physical memory between the loadable
	 * sections of the image and the non-loadable.
     */
    ldr x18, =extra_allocated_phys_mem
    fd80000001ac:	580018b2 	ldr	x18, fd80000004c0 <_enter_vas_warm+0x34>

	/* Disable caches and MMU */
	mrs x3, SCTLR_EL2 
    fd80000001b0:	d53c1003 	mrs	x3, sctlr_el2
	bic x3, x3, #0x7	
    fd80000001b4:	927df063 	and	x3, x3, #0xfffffffffffffff8
	msr SCTLR_EL2, x3 
    fd80000001b8:	d51c1003 	msr	sctlr_el2, x3
        
	/* Skip initialy global page tables setup if not bsp (boot cpu) */
	cbnz	x9, wait_for_bsp
    fd80000001bc:	b5000709 	cbnz	x9, fd800000029c <wait_for_bsp>

	adr	x16, _page_tables_start	
    fd80000001c0:	100df210 	adr	x16, fd800001c000 <_page_tables_start>
	adr	x17, _page_tables_end	
    fd80000001c4:	100ff1f1 	adr	x17, fd8000020000 <_dmem_beg>
	add x16, x16, x18
    fd80000001c8:	8b120210 	add	x16, x16, x18
	add x17, x17, x18
    fd80000001cc:	8b120231 	add	x17, x17, x18
	bl	boot_clear		
    fd80000001d0:	97ffffcc 	bl	fd8000000100 <boot_clear>

	/* Set temporary flat mapping to switch to VAS. */

	adr x4, root_l1_flat_pt
    fd80000001d4:	100f7164 	adr	x4, fd800001f000 <root_l1_flat_pt>
	add x4, x4, x18
    fd80000001d8:	8b120084 	add	x4, x4, x18
	PTE_INDEX_ASM x5, x1, 1 
    fd80000001dc:	d35efc25 	lsr	x5, x1, #30
    fd80000001e0:	924020a5 	and	x5, x5, #0x1ff
    fd80000001e4:	d37df0a5 	lsl	x5, x5, #3
	add x6, x1, #(PTE_HYP_FLAGS | PTE_SUPERPAGE)
    fd80000001e8:	911d1426 	add	x6, x1, #0x745
	str x6, [x4, x5]
    fd80000001ec:	f8256886 	str	x6, [x4, x5]
	
	/* Set global root mappings for hypervisor image */

	adr x4, root_l1_pt
    fd80000001f0:	100df084 	adr	x4, fd800001c000 <_page_tables_start>
	add x4, x4, x18
    fd80000001f4:	8b120084 	add	x4, x4, x18
	ldr x5, =(PTE_INDEX(1, BAO_VAS_BASE)*8)
    fd80000001f8:	58001685 	ldr	x5, fd80000004c8 <_enter_vas_warm+0x3c>
	adr x6, root_l2_pt
    fd80000001fc:	100e7026 	adr	x6, fd800001d000 <root_l2_pt>
	add x6, x6, x18
    fd8000000200:	8b1200c6 	add	x6, x6, x18
	add x6, x6, #(PTE_HYP_FLAGS | PTE_TABLE)
    fd8000000204:	911d1cc6 	add	x6, x6, #0x747
	str x6, [x4, x5]
    fd8000000208:	f8256886 	str	x6, [x4, x5]

	adr x4, root_l2_pt
    fd800000020c:	100e6fa4 	adr	x4, fd800001d000 <root_l2_pt>
	add x4, x4, x18
    fd8000000210:	8b120084 	add	x4, x4, x18
	ldr x5, =(PTE_INDEX(2, BAO_VAS_BASE)*8)
    fd8000000214:	580015a5 	ldr	x5, fd80000004c8 <_enter_vas_warm+0x3c>
	adr x6, root_l3_pt
    fd8000000218:	100eef46 	adr	x6, fd800001e000 <root_l3_pt>
	add x6, x6, x18
    fd800000021c:	8b1200c6 	add	x6, x6, x18
	add x6, x6, #(PTE_HYP_FLAGS | PTE_TABLE)
    fd8000000220:	911d1cc6 	add	x6, x6, #0x747
	str x6, [x4, x5]
    fd8000000224:	f8256886 	str	x6, [x4, x5]

	adr x4, root_l3_pt
    fd8000000228:	100eeec4 	adr	x4, fd800001e000 <root_l3_pt>
	add x4, x4, x18
    fd800000022c:	8b120084 	add	x4, x4, x18
	ldr x7, =_image_start
    fd8000000230:	58001507 	ldr	x7, fd80000004d0 <_enter_vas_warm+0x44>
	ldr x8, =_image_load_end
    fd8000000234:	58001528 	ldr	x8, fd80000004d8 <_enter_vas_warm+0x4c>
	adr x6, _image_start
    fd8000000238:	10ffee46 	adr	x6, fd8000000000 <_el2_entry>
	add x6, x6, #(PTE_HYP_FLAGS | PTE_PAGE)
    fd800000023c:	911d1cc6 	add	x6, x6, #0x747
1:
	cmp	x7, x8
    fd8000000240:	eb0800ff 	cmp	x7, x8
	b.ge 2f
    fd8000000244:	5400010a 	b.ge	fd8000000264 <boot_arch_profile_init+0xbc>  // b.tcont
	//lsr x5, x7, #(PTE_INDEX_SHIFT(3)-3)
	PTE_INDEX_ASM x5, x7, 3
    fd8000000248:	d34cfce5 	lsr	x5, x7, #12
    fd800000024c:	924020a5 	and	x5, x5, #0x1ff
    fd8000000250:	d37df0a5 	lsl	x5, x5, #3
	str x6, [x4, x5]
    fd8000000254:	f8256886 	str	x6, [x4, x5]
	add x6, x6, #PAGE_SIZE
    fd8000000258:	914004c6 	add	x6, x6, #0x1, lsl #12
	add x7, x7, #PAGE_SIZE
    fd800000025c:	914004e7 	add	x7, x7, #0x1, lsl #12
	b	1b
    fd8000000260:	17fffff8 	b	fd8000000240 <boot_arch_profile_init+0x98>
2:
	ldr x8, =_image_end
    fd8000000264:	580013e8 	ldr	x8, fd80000004e0 <_enter_vas_warm+0x54>
	cmp x7, x8
    fd8000000268:	eb0800ff 	cmp	x7, x8
	b.ge 3f
    fd800000026c:	540000ea 	b.ge	fd8000000288 <boot_arch_profile_init+0xe0>  // b.tcont
    ldr x6, =_image_noload_start
    fd8000000270:	580013c6 	ldr	x6, fd80000004e8 <_enter_vas_warm+0x5c>
    ldr x10, =BAO_VAS_BASE
    fd8000000274:	580013ea 	ldr	x10, fd80000004f0 <_enter_vas_warm+0x64>
    sub x6, x6, x10
    fd8000000278:	cb0a00c6 	sub	x6, x6, x10
    add x6, x6, x1
    fd800000027c:	8b0100c6 	add	x6, x6, x1
	add x6, x6, #(PTE_HYP_FLAGS | PTE_PAGE)
    fd8000000280:	911d1cc6 	add	x6, x6, #0x747
	b 1b
    fd8000000284:	17ffffef 	b	fd8000000240 <boot_arch_profile_init+0x98>
3:
	adr x5, _boot_barrier
    fd8000000288:	1008ebc5 	adr	x5, fd8000012000 <_boot_barrier>
	mov x4, #1
    fd800000028c:	d2800024 	mov	x4, #0x1                   	// #1
	str x4, [x5]
    fd8000000290:	f90000a4 	str	x4, [x5]
	//	dsb // arguments?
	sev
    fd8000000294:	d503209f 	sev
	b 	map_cpu
    fd8000000298:	14000005 	b	fd80000002ac <map_cpu>

0000fd800000029c <wait_for_bsp>:

wait_for_bsp:	
/* wait fot the bsp to finish up global mappings */
	wfe
    fd800000029c:	d503205f 	wfe
	ldr x4, _boot_barrier
    fd80000002a0:	5808eb04 	ldr	x4, fd8000012000 <_boot_barrier>
	cmp x4, #1
    fd80000002a4:	f100049f 	cmp	x4, #0x1
	b.lt wait_for_bsp
    fd80000002a8:	54ffffab 	b.lt	fd800000029c <wait_for_bsp>  // b.tstop

0000fd80000002ac <map_cpu>:
	 *    x7 -> virt addr
	 *    x8 -> aux 
	 */

	/* get cpu root pt */
    adrp x3, _dmem_phys_beg
    fd80000002ac:	f001ab63 	adrp	x3, fd800356f000 <_dmem_phys_beg>
	mov x8, #(CPU_SIZE + (PT_SIZE*PT_LVLS))
    fd80000002b0:	d28c0008 	mov	x8, #0x6000                	// #24576
	madd x3, x0, x8, x3
    fd80000002b4:	9b080c03 	madd	x3, x0, x8, x3
	
	mov	x16, x3	
    fd80000002b8:	aa0303f0 	mov	x16, x3
	add	x17, x3, x8
    fd80000002bc:	8b080071 	add	x17, x3, x8
	bl	boot_clear
    fd80000002c0:	97ffff90 	bl	fd8000000100 <boot_clear>

	/* Get pointer to root page table */
	add x4, x3, #CPU_SIZE
    fd80000002c4:	91400864 	add	x4, x3, #0x2, lsl #12

	/* map original bootstrap flat mappings */
	PTE_INDEX_ASM x5, x1, 0 
    fd80000002c8:	d367fc25 	lsr	x5, x1, #39
    fd80000002cc:	924020a5 	and	x5, x5, #0x1ff
    fd80000002d0:	d37df0a5 	lsl	x5, x5, #3
	adr x6, root_l1_flat_pt
    fd80000002d4:	100f6966 	adr	x6, fd800001f000 <root_l1_flat_pt>
	add x6, x6, x18
    fd80000002d8:	8b1200c6 	add	x6, x6, x18
	add x6, x6, #(PTE_HYP_FLAGS | PTE_TABLE)
    fd80000002dc:	911d1cc6 	add	x6, x6, #0x747
	str x6, [x4, x5]
    fd80000002e0:	f8256886 	str	x6, [x4, x5]
	
	ldr x5, =(PTE_INDEX(0, BAO_VAS_BASE)*8)
    fd80000002e4:	580010a5 	ldr	x5, fd80000004f8 <_enter_vas_warm+0x6c>
	adr x6, root_l1_pt
    fd80000002e8:	100de8c6 	adr	x6, fd800001c000 <_page_tables_start>
	add x6, x6, x18
    fd80000002ec:	8b1200c6 	add	x6, x6, x18
	add x6, x6, #(PTE_HYP_FLAGS | PTE_TABLE)
    fd80000002f0:	911d1cc6 	add	x6, x6, #0x747
	str x6, [x4, x5]
    fd80000002f4:	f8256886 	str	x6, [x4, x5]

	ldr x5, =(PTE_INDEX(0, BAO_CPU_BASE)*8)
    fd80000002f8:	58001045 	ldr	x5, fd8000000500 <_enter_vas_warm+0x74>
	add x6, x4, #PT_SIZE
    fd80000002fc:	91400486 	add	x6, x4, #0x1, lsl #12
	add x6, x6, #(PTE_HYP_FLAGS | PTE_TABLE)
    fd8000000300:	911d1cc6 	add	x6, x6, #0x747
	str x6, [x4, x5]
    fd8000000304:	f8256886 	str	x6, [x4, x5]

	add x4, x4, #PT_SIZE
    fd8000000308:	91400484 	add	x4, x4, #0x1, lsl #12
	ldr x5, =(PTE_INDEX(1, BAO_CPU_BASE)*8)
    fd800000030c:	58000de5 	ldr	x5, fd80000004c8 <_enter_vas_warm+0x3c>
	add x6, x4, #PT_SIZE
    fd8000000310:	91400486 	add	x6, x4, #0x1, lsl #12
	add x6, x6, #(PTE_HYP_FLAGS | PTE_TABLE)
    fd8000000314:	911d1cc6 	add	x6, x6, #0x747
	str x6, [x4, x5]
    fd8000000318:	f8256886 	str	x6, [x4, x5]

	add x4, x4, #PT_SIZE
    fd800000031c:	91400484 	add	x4, x4, #0x1, lsl #12
	ldr x5, =(PTE_INDEX(2, BAO_CPU_BASE)*8)
    fd8000000320:	58000d45 	ldr	x5, fd80000004c8 <_enter_vas_warm+0x3c>
	add x6, x4, #PT_SIZE
    fd8000000324:	91400486 	add	x6, x4, #0x1, lsl #12
	add x6, x6, #(PTE_HYP_FLAGS | PTE_TABLE)
    fd8000000328:	911d1cc6 	add	x6, x6, #0x747
	str x6, [x4, x5]
    fd800000032c:	f8256886 	str	x6, [x4, x5]

	add x4, x4, #PT_SIZE
    fd8000000330:	91400484 	add	x4, x4, #0x1, lsl #12
	ldr x7, =BAO_CPU_BASE
    fd8000000334:	58000ea7 	ldr	x7, fd8000000508 <_enter_vas_warm+0x7c>
	add x8, x7, #(CPU_SIZE+PT_SIZE)
    fd8000000338:	91400ce8 	add	x8, x7, #0x3, lsl #12
	mov x6, x3
    fd800000033c:	aa0303e6 	mov	x6, x3
	add x6, x6, #(PTE_HYP_FLAGS | PTE_TABLE)
    fd8000000340:	911d1cc6 	add	x6, x6, #0x747
1:
	cmp	x7, x8
    fd8000000344:	eb0800ff 	cmp	x7, x8
	b.ge setup_cpu
    fd8000000348:	5400010a 	b.ge	fd8000000368 <setup_cpu>  // b.tcont
	PTE_INDEX_ASM x5, x7, 3
    fd800000034c:	d34cfce5 	lsr	x5, x7, #12
    fd8000000350:	924020a5 	and	x5, x5, #0x1ff
    fd8000000354:	d37df0a5 	lsl	x5, x5, #3
	str x6, [x4, x5]
    fd8000000358:	f8256886 	str	x6, [x4, x5]
	add x6, x6, #PAGE_SIZE
    fd800000035c:	914004c6 	add	x6, x6, #0x1, lsl #12
	add x7, x7, #PAGE_SIZE
    fd8000000360:	914004e7 	add	x7, x7, #0x1, lsl #12
	b	1b
    fd8000000364:	17fffff8 	b	fd8000000344 <map_cpu+0x98>

0000fd8000000368 <setup_cpu>:
	 * The operation is purposely commented out.  We are assuming monitor code already enabled smp
	 * coherency.
	 */ 

	/* setup translation configurations */
	ldr x3, =TCR_EL2_DFLT
    fd8000000368:	58000d43 	ldr	x3, fd8000000510 <_enter_vas_warm+0x84>
	msr	TCR_EL2, x3
    fd800000036c:	d51c2043 	msr	tcr_el2, x3

	/* set hypervisor default memory attributes */
	ldr x3, =MAIR_EL2_DFLT
    fd8000000370:	58000d43 	ldr	x3, fd8000000518 <_enter_vas_warm+0x8c>
	msr	MAIR_EL2, x3
    fd8000000374:	d51ca203 	msr	mair_el2, x3

    /* set cpu thread pointer */
    ldr x3, =BAO_CPU_BASE
    fd8000000378:	58000c83 	ldr	x3, fd8000000508 <_enter_vas_warm+0x7c>
    msr tpidr_el2, x3
    fd800000037c:	d51cd043 	msr	tpidr_el2, x3

    adrp x3, _dmem_phys_beg
    fd8000000380:	f001ab63 	adrp	x3, fd800356f000 <_dmem_phys_beg>
	mov x8, #(CPU_SIZE + (PT_SIZE*PT_LVLS))
    fd8000000384:	d28c0008 	mov	x8, #0x6000                	// #24576
	madd x3, x0, x8, x3
    fd8000000388:	9b080c03 	madd	x3, x0, x8, x3
	add x3, x3, #CPU_SIZE
    fd800000038c:	91400863 	add	x3, x3, #0x2, lsl #12
	msr TTBR0_EL2, x3
    fd8000000390:	d51c2003 	msr	ttbr0_el2, x3

	/**
	 * TODO: invalidate caches, TLBs and branch prediction. Need for barriers?
	 */

	ldr x5, =_enter_vas
    fd8000000394:	58000c65 	ldr	x5, fd8000000520 <_enter_vas_warm+0x94>

	/* Enable MMU and caches */
	ldr x4, =(SCTLR_RES1 | SCTLR_M | SCTLR_C | SCTLR_I)
    fd8000000398:	58000c84 	ldr	x4, fd8000000528 <_enter_vas_warm+0x9c>
	msr	SCTLR_EL2, x4
    fd800000039c:	d51c1004 	msr	sctlr_el2, x4
	
	tlbi	alle2
    fd80000003a0:	d50c871f 	tlbi	alle2
	dsb	nsh
    fd80000003a4:	d503379f 	dsb	nsh
	isb
    fd80000003a8:	d5033fdf 	isb
	
	br  x5
    fd80000003ac:	d61f00a0 	br	x5

0000fd80000003b0 <_enter_vas>:

_enter_vas:

	/* Install vector table virtual address*/
	ldr	x3, =_hyp_vector_table
    fd80000003b0:	58000c03 	ldr	x3, fd8000000530 <_enter_vas_warm+0xa4>
	msr	VBAR_EL2, x3
    fd80000003b4:	d51cc003 	msr	vbar_el2, x3

	/* Remove temporary mapping - the L1 page holding it leaks */
	ldr x4, =BAO_CPU_BASE
    fd80000003b8:	58000a84 	ldr	x4, fd8000000508 <_enter_vas_warm+0x7c>
	add x4, x4, #CPU_SIZE
    fd80000003bc:	91400884 	add	x4, x4, #0x2, lsl #12
	PTE_INDEX_ASM x5, x1, 0 
    fd80000003c0:	d367fc25 	lsr	x5, x1, #39
    fd80000003c4:	924020a5 	and	x5, x5, #0x1ff
    fd80000003c8:	d37df0a5 	lsl	x5, x5, #3
	str xzr, [x4, x5]
    fd80000003cc:	f825689f 	str	xzr, [x4, x5]

    tlbi	alle2
    fd80000003d0:	d50c871f 	tlbi	alle2
	dsb	nsh
    fd80000003d4:	d503379f 	dsb	nsh
	isb
    fd80000003d8:	d5033fdf 	isb

    sub x20, x20, x1
    fd80000003dc:	cb010294 	sub	x20, x20, x1
    ldr x3, =_image_start
    fd80000003e0:	58000783 	ldr	x3, fd80000004d0 <_enter_vas_warm+0x44>
    add x30, x20, x3
    fd80000003e4:	8b03029e 	add	x30, x20, x3
    ret
    fd80000003e8:	d65f03c0 	ret

0000fd80000003ec <psci_boot_entry>:
.global psci_boot_entry
.func psci_boot_entry
psci_boot_entry:
warm_boot:

	adr	x3, _hyp_vector_table
    fd80000003ec:	100060a3 	adr	x3, fd8000001000 <_hyp_vector_table>
	msr	VBAR_EL2, x3
    fd80000003f0:	d51cc003 	msr	vbar_el2, x3

	/* save x0 which contains pointer to saved state psci context */
	mov x19, x0
    fd80000003f4:	aa0003f3 	mov	x19, x0
    /* invalidate l1$ */
	mov x0, #0
    fd80000003f8:	d2800000 	mov	x0, #0x0                   	// #0
	bl	boot_cache_invalidate
    fd80000003fc:	97ffff46 	bl	fd8000000114 <boot_cache_invalidate>

    /* set cpu thread pointer */
    ldr x3, =BAO_CPU_BASE
    fd8000000400:	58000843 	ldr	x3, fd8000000508 <_enter_vas_warm+0x7c>
    msr tpidr_el2, x3
    fd8000000404:	d51cd043 	msr	tpidr_el2, x3

	/* restore all needed register state */
	ldp x5, x6, [x19, #0]
    fd8000000408:	a9401a65 	ldp	x5, x6, [x19]
	msr TCR_EL2, x5
    fd800000040c:	d51c2045 	msr	tcr_el2, x5
	msr TTBR0_EL2, x6
    fd8000000410:	d51c2006 	msr	ttbr0_el2, x6
	ldp x5, x6, [x19, #16]
    fd8000000414:	a9411a65 	ldp	x5, x6, [x19, #16]
	msr MAIR_EL2, x5
    fd8000000418:	d51ca205 	msr	mair_el2, x5
	msr CPTR_EL2, x6
    fd800000041c:	d51c1146 	msr	cptr_el2, x6
	ldp x5, x6, [x19, #32]
    fd8000000420:	a9421a65 	ldp	x5, x6, [x19, #32]
	msr HCR_EL2, x5
    fd8000000424:	d51c1105 	msr	hcr_el2, x5
	msr VMPIDR_EL2, x6
    fd8000000428:	d51c00a6 	msr	vmpidr_el2, x6
	ldp x5, x6, [x19, #48]
    fd800000042c:	a9431a65 	ldp	x5, x6, [x19, #48]
	msr VTCR_EL2, x5
    fd8000000430:	d51c2145 	msr	vtcr_el2, x5
	msr VTTBR_EL2, x6
    fd8000000434:	d51c2106 	msr	vttbr_el2, x6
    ldp x0, x5, [x19, #64]   /* wake up reason is the arg of the later psci_wake call */
    fd8000000438:	a9441660 	ldp	x0, x5, [x19, #64]

	/* map original bootstrap flat mappings */
	mrs x3, TTBR0_EL2
    fd800000043c:	d53c2003 	mrs	x3, ttbr0_el2
	adrp x1, _image_start
    fd8000000440:	90000001 	adrp	x1, fd8000000000 <_el2_entry>
	PTE_INDEX_ASM x1, x1, 0 
    fd8000000444:	d367fc21 	lsr	x1, x1, #39
    fd8000000448:	92402021 	and	x1, x1, #0x1ff
    fd800000044c:	d37df021 	lsl	x1, x1, #3
	add x3, x3, x1
    fd8000000450:	8b010063 	add	x3, x3, x1
	dc civac, x3  //we invalidated l1$, but make sure the pte is not in l2$
    fd8000000454:	d50b7e23 	dc	civac, x3
	add x5, x5, #(PTE_HYP_FLAGS | PTE_TABLE)
    fd8000000458:	911d1ca5 	add	x5, x5, #0x747
	str x5, [x3]
    fd800000045c:	f9000065 	str	x5, [x3]

	/* Install vector table virtual address*/
	ldr	x3, =_hyp_vector_table
    fd8000000460:	58000683 	ldr	x3, fd8000000530 <_enter_vas_warm+0xa4>
	msr	VBAR_EL2, x3
    fd8000000464:	d51cc003 	msr	vbar_el2, x3

    tlbi	alle2 
    fd8000000468:	d50c871f 	tlbi	alle2
	dsb	nsh
    fd800000046c:	d503379f 	dsb	nsh
	isb
    fd8000000470:	d5033fdf 	isb

	/* Enable MMU and caches */
	ldr x4, =(SCTLR_RES1 | SCTLR_M | SCTLR_C | SCTLR_I)
    fd8000000474:	580005a4 	ldr	x4, fd8000000528 <_enter_vas_warm+0x9c>
	msr	SCTLR_EL2, x4
    fd8000000478:	d51c1004 	msr	sctlr_el2, x4

	dsb	nsh
    fd800000047c:	d503379f 	dsb	nsh
	isb
    fd8000000480:	d5033fdf 	isb
	
	ldr x5, =_enter_vas_warm
    fd8000000484:	580005a5 	ldr	x5, fd8000000538 <_enter_vas_warm+0xac>
	br  x5		
    fd8000000488:	d61f00a0 	br	x5

0000fd800000048c <_enter_vas_warm>:

_enter_vas_warm:
	/* Unmap bootstrat flat mappings */
	ldr x4, =BAO_CPU_BASE
    fd800000048c:	580003e4 	ldr	x4, fd8000000508 <_enter_vas_warm+0x7c>
	add x3, x4, #(CPU_STACK_OFF+CPU_STACK_SIZE)
    fd8000000490:	91400883 	add	x3, x4, #0x2, lsl #12

	add x4, x4, #CPU_SIZE
    fd8000000494:	91400884 	add	x4, x4, #0x2, lsl #12
	PTE_INDEX_ASM x5, x1, 0 
    fd8000000498:	d367fc25 	lsr	x5, x1, #39
    fd800000049c:	924020a5 	and	x5, x5, #0x1ff
    fd80000004a0:	d37df0a5 	lsl	x5, x5, #3
	str xzr, [x4, x5]
    fd80000004a4:	f825689f 	str	xzr, [x4, x5]
    tlbi	alle2
    fd80000004a8:	d50c871f 	tlbi	alle2
	dsb	nsh
    fd80000004ac:	d503379f 	dsb	nsh
	isb
    fd80000004b0:	d5033fdf 	isb

    /* Initialize stack pointer */
    mov sp, x3
    fd80000004b4:	9100007f 	mov	sp, x3

	bl	psci_wake
    fd80000004b8:	94000606 	bl	fd8000001cd0 <psci_wake>
	b 	.
    fd80000004bc:	14000000 	b	fd80000004bc <_enter_vas_warm+0x30>
    fd80000004c0:	0354f000 	.word	0x0354f000
	...
    fd80000004d4:	0000fd80 	.word	0x0000fd80
    fd80000004d8:	00013000 	.word	0x00013000
    fd80000004dc:	0000fd80 	.word	0x0000fd80
    fd80000004e0:	00020000 	.word	0x00020000
    fd80000004e4:	0000fd80 	.word	0x0000fd80
    fd80000004e8:	03562000 	.word	0x03562000
    fd80000004ec:	0000fd80 	.word	0x0000fd80
    fd80000004f0:	00000000 	.word	0x00000000
    fd80000004f4:	0000fd80 	.word	0x0000fd80
    fd80000004f8:	00000fd8 	.word	0x00000fd8
    fd80000004fc:	00000000 	.word	0x00000000
    fd8000000500:	00000fe0 	.word	0x00000fe0
	...
    fd800000050c:	0000fe00 	.word	0x0000fe00
    fd8000000510:	80853510 	.word	0x80853510
    fd8000000514:	00000000 	.word	0x00000000
    fd8000000518:	0004ff00 	.word	0x0004ff00
    fd800000051c:	00000000 	.word	0x00000000
    fd8000000520:	000003b0 	.word	0x000003b0
    fd8000000524:	0000fd80 	.word	0x0000fd80
    fd8000000528:	30c51835 	.word	0x30c51835
    fd800000052c:	00000000 	.word	0x00000000
    fd8000000530:	00001000 	.word	0x00001000
    fd8000000534:	0000fd80 	.word	0x0000fd80
    fd8000000538:	0000048c 	.word	0x0000048c
    fd800000053c:	0000fd80 	.word	0x0000fd80

Disassembly of section .text:

0000fd8000000800 <vcpu_arch_entry>:

.endm

.global vcpu_arch_entry
vcpu_arch_entry:
    mrs x0, tpidr_el2
    fd8000000800:	d53cd040 	mrs	x0, tpidr_el2
    ldr x0, [x0, #CPU_VCPU_OFF]
    fd8000000804:	f9402800 	ldr	x0, [x0, #80]
    add x0, x0, #VCPU_REGS_OFF
    fd8000000808:	91004000 	add	x0, x0, #0x10
    mov sp, x0
    fd800000080c:	9100001f 	mov	sp, x0

    ldp x0, x1, [sp, #(8*31)]
    fd8000000810:	a94f87e0 	ldp	x0, x1, [sp, #248]
    msr ELR_EL2, x0
    fd8000000814:	d51c4020 	msr	elr_el2, x0
    msr SPSR_EL2, x1
    fd8000000818:	d51c4001 	msr	spsr_el2, x1

    ldp x0, x1,   [sp, #(8*0)]
    fd800000081c:	a94007e0 	ldp	x0, x1, [sp]
    ldp x2, x3,   [sp, #(8*2)]
    fd8000000820:	a9410fe2 	ldp	x2, x3, [sp, #16]
    ldp x4, x5,   [sp, #(8*4)]
    fd8000000824:	a94217e4 	ldp	x4, x5, [sp, #32]
    ldp x6, x7,   [sp, #(8*6)]
    fd8000000828:	a9431fe6 	ldp	x6, x7, [sp, #48]
    ldp x8, x9,   [sp, #(8*8)]
    fd800000082c:	a94427e8 	ldp	x8, x9, [sp, #64]
    ldp x10, x11, [sp, #(8*10)]
    fd8000000830:	a9452fea 	ldp	x10, x11, [sp, #80]
    ldp x12, x13, [sp, #(8*12)]
    fd8000000834:	a94637ec 	ldp	x12, x13, [sp, #96]
    ldp x14, x15, [sp, #(8*14)]
    fd8000000838:	a9473fee 	ldp	x14, x15, [sp, #112]
    ldp x16, x17, [sp, #(8*16)]
    fd800000083c:	a94847f0 	ldp	x16, x17, [sp, #128]
    ldp x18, x19, [sp, #(8*18)]
    fd8000000840:	a9494ff2 	ldp	x18, x19, [sp, #144]
    ldp x20, x21, [sp, #(8*20)]
    fd8000000844:	a94a57f4 	ldp	x20, x21, [sp, #160]
    ldp x22, x23, [sp, #(8*22)]
    fd8000000848:	a94b5ff6 	ldp	x22, x23, [sp, #176]
    ldp x24, x25, [sp, #(8*24)]
    fd800000084c:	a94c67f8 	ldp	x24, x25, [sp, #192]
    ldp x26, x27, [sp, #(8*26)]
    fd8000000850:	a94d6ffa 	ldp	x26, x27, [sp, #208]
    ldp x28, x29, [sp, #(8*28)]
    fd8000000854:	a94e77fc 	ldp	x28, x29, [sp, #224]
    ldr x30,      [sp, #(8*30)]
    fd8000000858:	f9407bfe 	ldr	x30, [sp, #240]
    
    eret
    fd800000085c:	d69f03e0 	eret
    b   .
    fd8000000860:	14000000 	b	fd8000000860 <vcpu_arch_entry+0x60>
    fd8000000864:	d503201f 	nop
    fd8000000868:	d503201f 	nop
    fd800000086c:	d503201f 	nop
    fd8000000870:	d503201f 	nop
    fd8000000874:	d503201f 	nop
    fd8000000878:	d503201f 	nop
    fd800000087c:	d503201f 	nop
    fd8000000880:	d503201f 	nop
    fd8000000884:	d503201f 	nop
    fd8000000888:	d503201f 	nop
    fd800000088c:	d503201f 	nop
    fd8000000890:	d503201f 	nop
    fd8000000894:	d503201f 	nop
    fd8000000898:	d503201f 	nop
    fd800000089c:	d503201f 	nop
    fd80000008a0:	d503201f 	nop
    fd80000008a4:	d503201f 	nop
    fd80000008a8:	d503201f 	nop
    fd80000008ac:	d503201f 	nop
    fd80000008b0:	d503201f 	nop
    fd80000008b4:	d503201f 	nop
    fd80000008b8:	d503201f 	nop
    fd80000008bc:	d503201f 	nop
    fd80000008c0:	d503201f 	nop
    fd80000008c4:	d503201f 	nop
    fd80000008c8:	d503201f 	nop
    fd80000008cc:	d503201f 	nop
    fd80000008d0:	d503201f 	nop
    fd80000008d4:	d503201f 	nop
    fd80000008d8:	d503201f 	nop
    fd80000008dc:	d503201f 	nop
    fd80000008e0:	d503201f 	nop
    fd80000008e4:	d503201f 	nop
    fd80000008e8:	d503201f 	nop
    fd80000008ec:	d503201f 	nop
    fd80000008f0:	d503201f 	nop
    fd80000008f4:	d503201f 	nop
    fd80000008f8:	d503201f 	nop
    fd80000008fc:	d503201f 	nop
    fd8000000900:	d503201f 	nop
    fd8000000904:	d503201f 	nop
    fd8000000908:	d503201f 	nop
    fd800000090c:	d503201f 	nop
    fd8000000910:	d503201f 	nop
    fd8000000914:	d503201f 	nop
    fd8000000918:	d503201f 	nop
    fd800000091c:	d503201f 	nop
    fd8000000920:	d503201f 	nop
    fd8000000924:	d503201f 	nop
    fd8000000928:	d503201f 	nop
    fd800000092c:	d503201f 	nop
    fd8000000930:	d503201f 	nop
    fd8000000934:	d503201f 	nop
    fd8000000938:	d503201f 	nop
    fd800000093c:	d503201f 	nop
    fd8000000940:	d503201f 	nop
    fd8000000944:	d503201f 	nop
    fd8000000948:	d503201f 	nop
    fd800000094c:	d503201f 	nop
    fd8000000950:	d503201f 	nop
    fd8000000954:	d503201f 	nop
    fd8000000958:	d503201f 	nop
    fd800000095c:	d503201f 	nop
    fd8000000960:	d503201f 	nop
    fd8000000964:	d503201f 	nop
    fd8000000968:	d503201f 	nop
    fd800000096c:	d503201f 	nop
    fd8000000970:	d503201f 	nop
    fd8000000974:	d503201f 	nop
    fd8000000978:	d503201f 	nop
    fd800000097c:	d503201f 	nop
    fd8000000980:	d503201f 	nop
    fd8000000984:	d503201f 	nop
    fd8000000988:	d503201f 	nop
    fd800000098c:	d503201f 	nop
    fd8000000990:	d503201f 	nop
    fd8000000994:	d503201f 	nop
    fd8000000998:	d503201f 	nop
    fd800000099c:	d503201f 	nop
    fd80000009a0:	d503201f 	nop
    fd80000009a4:	d503201f 	nop
    fd80000009a8:	d503201f 	nop
    fd80000009ac:	d503201f 	nop
    fd80000009b0:	d503201f 	nop
    fd80000009b4:	d503201f 	nop
    fd80000009b8:	d503201f 	nop
    fd80000009bc:	d503201f 	nop
    fd80000009c0:	d503201f 	nop
    fd80000009c4:	d503201f 	nop
    fd80000009c8:	d503201f 	nop
    fd80000009cc:	d503201f 	nop
    fd80000009d0:	d503201f 	nop
    fd80000009d4:	d503201f 	nop
    fd80000009d8:	d503201f 	nop
    fd80000009dc:	d503201f 	nop
    fd80000009e0:	d503201f 	nop
    fd80000009e4:	d503201f 	nop
    fd80000009e8:	d503201f 	nop
    fd80000009ec:	d503201f 	nop
    fd80000009f0:	d503201f 	nop
    fd80000009f4:	d503201f 	nop
    fd80000009f8:	d503201f 	nop
    fd80000009fc:	d503201f 	nop
    fd8000000a00:	d503201f 	nop
    fd8000000a04:	d503201f 	nop
    fd8000000a08:	d503201f 	nop
    fd8000000a0c:	d503201f 	nop
    fd8000000a10:	d503201f 	nop
    fd8000000a14:	d503201f 	nop
    fd8000000a18:	d503201f 	nop
    fd8000000a1c:	d503201f 	nop
    fd8000000a20:	d503201f 	nop
    fd8000000a24:	d503201f 	nop
    fd8000000a28:	d503201f 	nop
    fd8000000a2c:	d503201f 	nop
    fd8000000a30:	d503201f 	nop
    fd8000000a34:	d503201f 	nop
    fd8000000a38:	d503201f 	nop
    fd8000000a3c:	d503201f 	nop
    fd8000000a40:	d503201f 	nop
    fd8000000a44:	d503201f 	nop
    fd8000000a48:	d503201f 	nop
    fd8000000a4c:	d503201f 	nop
    fd8000000a50:	d503201f 	nop
    fd8000000a54:	d503201f 	nop
    fd8000000a58:	d503201f 	nop
    fd8000000a5c:	d503201f 	nop
    fd8000000a60:	d503201f 	nop
    fd8000000a64:	d503201f 	nop
    fd8000000a68:	d503201f 	nop
    fd8000000a6c:	d503201f 	nop
    fd8000000a70:	d503201f 	nop
    fd8000000a74:	d503201f 	nop
    fd8000000a78:	d503201f 	nop
    fd8000000a7c:	d503201f 	nop
    fd8000000a80:	d503201f 	nop
    fd8000000a84:	d503201f 	nop
    fd8000000a88:	d503201f 	nop
    fd8000000a8c:	d503201f 	nop
    fd8000000a90:	d503201f 	nop
    fd8000000a94:	d503201f 	nop
    fd8000000a98:	d503201f 	nop
    fd8000000a9c:	d503201f 	nop
    fd8000000aa0:	d503201f 	nop
    fd8000000aa4:	d503201f 	nop
    fd8000000aa8:	d503201f 	nop
    fd8000000aac:	d503201f 	nop
    fd8000000ab0:	d503201f 	nop
    fd8000000ab4:	d503201f 	nop
    fd8000000ab8:	d503201f 	nop
    fd8000000abc:	d503201f 	nop
    fd8000000ac0:	d503201f 	nop
    fd8000000ac4:	d503201f 	nop
    fd8000000ac8:	d503201f 	nop
    fd8000000acc:	d503201f 	nop
    fd8000000ad0:	d503201f 	nop
    fd8000000ad4:	d503201f 	nop
    fd8000000ad8:	d503201f 	nop
    fd8000000adc:	d503201f 	nop
    fd8000000ae0:	d503201f 	nop
    fd8000000ae4:	d503201f 	nop
    fd8000000ae8:	d503201f 	nop
    fd8000000aec:	d503201f 	nop
    fd8000000af0:	d503201f 	nop
    fd8000000af4:	d503201f 	nop
    fd8000000af8:	d503201f 	nop
    fd8000000afc:	d503201f 	nop
    fd8000000b00:	d503201f 	nop
    fd8000000b04:	d503201f 	nop
    fd8000000b08:	d503201f 	nop
    fd8000000b0c:	d503201f 	nop
    fd8000000b10:	d503201f 	nop
    fd8000000b14:	d503201f 	nop
    fd8000000b18:	d503201f 	nop
    fd8000000b1c:	d503201f 	nop
    fd8000000b20:	d503201f 	nop
    fd8000000b24:	d503201f 	nop
    fd8000000b28:	d503201f 	nop
    fd8000000b2c:	d503201f 	nop
    fd8000000b30:	d503201f 	nop
    fd8000000b34:	d503201f 	nop
    fd8000000b38:	d503201f 	nop
    fd8000000b3c:	d503201f 	nop
    fd8000000b40:	d503201f 	nop
    fd8000000b44:	d503201f 	nop
    fd8000000b48:	d503201f 	nop
    fd8000000b4c:	d503201f 	nop
    fd8000000b50:	d503201f 	nop
    fd8000000b54:	d503201f 	nop
    fd8000000b58:	d503201f 	nop
    fd8000000b5c:	d503201f 	nop
    fd8000000b60:	d503201f 	nop
    fd8000000b64:	d503201f 	nop
    fd8000000b68:	d503201f 	nop
    fd8000000b6c:	d503201f 	nop
    fd8000000b70:	d503201f 	nop
    fd8000000b74:	d503201f 	nop
    fd8000000b78:	d503201f 	nop
    fd8000000b7c:	d503201f 	nop
    fd8000000b80:	d503201f 	nop
    fd8000000b84:	d503201f 	nop
    fd8000000b88:	d503201f 	nop
    fd8000000b8c:	d503201f 	nop
    fd8000000b90:	d503201f 	nop
    fd8000000b94:	d503201f 	nop
    fd8000000b98:	d503201f 	nop
    fd8000000b9c:	d503201f 	nop
    fd8000000ba0:	d503201f 	nop
    fd8000000ba4:	d503201f 	nop
    fd8000000ba8:	d503201f 	nop
    fd8000000bac:	d503201f 	nop
    fd8000000bb0:	d503201f 	nop
    fd8000000bb4:	d503201f 	nop
    fd8000000bb8:	d503201f 	nop
    fd8000000bbc:	d503201f 	nop
    fd8000000bc0:	d503201f 	nop
    fd8000000bc4:	d503201f 	nop
    fd8000000bc8:	d503201f 	nop
    fd8000000bcc:	d503201f 	nop
    fd8000000bd0:	d503201f 	nop
    fd8000000bd4:	d503201f 	nop
    fd8000000bd8:	d503201f 	nop
    fd8000000bdc:	d503201f 	nop
    fd8000000be0:	d503201f 	nop
    fd8000000be4:	d503201f 	nop
    fd8000000be8:	d503201f 	nop
    fd8000000bec:	d503201f 	nop
    fd8000000bf0:	d503201f 	nop
    fd8000000bf4:	d503201f 	nop
    fd8000000bf8:	d503201f 	nop
    fd8000000bfc:	d503201f 	nop
    fd8000000c00:	d503201f 	nop
    fd8000000c04:	d503201f 	nop
    fd8000000c08:	d503201f 	nop
    fd8000000c0c:	d503201f 	nop
    fd8000000c10:	d503201f 	nop
    fd8000000c14:	d503201f 	nop
    fd8000000c18:	d503201f 	nop
    fd8000000c1c:	d503201f 	nop
    fd8000000c20:	d503201f 	nop
    fd8000000c24:	d503201f 	nop
    fd8000000c28:	d503201f 	nop
    fd8000000c2c:	d503201f 	nop
    fd8000000c30:	d503201f 	nop
    fd8000000c34:	d503201f 	nop
    fd8000000c38:	d503201f 	nop
    fd8000000c3c:	d503201f 	nop
    fd8000000c40:	d503201f 	nop
    fd8000000c44:	d503201f 	nop
    fd8000000c48:	d503201f 	nop
    fd8000000c4c:	d503201f 	nop
    fd8000000c50:	d503201f 	nop
    fd8000000c54:	d503201f 	nop
    fd8000000c58:	d503201f 	nop
    fd8000000c5c:	d503201f 	nop
    fd8000000c60:	d503201f 	nop
    fd8000000c64:	d503201f 	nop
    fd8000000c68:	d503201f 	nop
    fd8000000c6c:	d503201f 	nop
    fd8000000c70:	d503201f 	nop
    fd8000000c74:	d503201f 	nop
    fd8000000c78:	d503201f 	nop
    fd8000000c7c:	d503201f 	nop
    fd8000000c80:	d503201f 	nop
    fd8000000c84:	d503201f 	nop
    fd8000000c88:	d503201f 	nop
    fd8000000c8c:	d503201f 	nop
    fd8000000c90:	d503201f 	nop
    fd8000000c94:	d503201f 	nop
    fd8000000c98:	d503201f 	nop
    fd8000000c9c:	d503201f 	nop
    fd8000000ca0:	d503201f 	nop
    fd8000000ca4:	d503201f 	nop
    fd8000000ca8:	d503201f 	nop
    fd8000000cac:	d503201f 	nop
    fd8000000cb0:	d503201f 	nop
    fd8000000cb4:	d503201f 	nop
    fd8000000cb8:	d503201f 	nop
    fd8000000cbc:	d503201f 	nop
    fd8000000cc0:	d503201f 	nop
    fd8000000cc4:	d503201f 	nop
    fd8000000cc8:	d503201f 	nop
    fd8000000ccc:	d503201f 	nop
    fd8000000cd0:	d503201f 	nop
    fd8000000cd4:	d503201f 	nop
    fd8000000cd8:	d503201f 	nop
    fd8000000cdc:	d503201f 	nop
    fd8000000ce0:	d503201f 	nop
    fd8000000ce4:	d503201f 	nop
    fd8000000ce8:	d503201f 	nop
    fd8000000cec:	d503201f 	nop
    fd8000000cf0:	d503201f 	nop
    fd8000000cf4:	d503201f 	nop
    fd8000000cf8:	d503201f 	nop
    fd8000000cfc:	d503201f 	nop
    fd8000000d00:	d503201f 	nop
    fd8000000d04:	d503201f 	nop
    fd8000000d08:	d503201f 	nop
    fd8000000d0c:	d503201f 	nop
    fd8000000d10:	d503201f 	nop
    fd8000000d14:	d503201f 	nop
    fd8000000d18:	d503201f 	nop
    fd8000000d1c:	d503201f 	nop
    fd8000000d20:	d503201f 	nop
    fd8000000d24:	d503201f 	nop
    fd8000000d28:	d503201f 	nop
    fd8000000d2c:	d503201f 	nop
    fd8000000d30:	d503201f 	nop
    fd8000000d34:	d503201f 	nop
    fd8000000d38:	d503201f 	nop
    fd8000000d3c:	d503201f 	nop
    fd8000000d40:	d503201f 	nop
    fd8000000d44:	d503201f 	nop
    fd8000000d48:	d503201f 	nop
    fd8000000d4c:	d503201f 	nop
    fd8000000d50:	d503201f 	nop
    fd8000000d54:	d503201f 	nop
    fd8000000d58:	d503201f 	nop
    fd8000000d5c:	d503201f 	nop
    fd8000000d60:	d503201f 	nop
    fd8000000d64:	d503201f 	nop
    fd8000000d68:	d503201f 	nop
    fd8000000d6c:	d503201f 	nop
    fd8000000d70:	d503201f 	nop
    fd8000000d74:	d503201f 	nop
    fd8000000d78:	d503201f 	nop
    fd8000000d7c:	d503201f 	nop
    fd8000000d80:	d503201f 	nop
    fd8000000d84:	d503201f 	nop
    fd8000000d88:	d503201f 	nop
    fd8000000d8c:	d503201f 	nop
    fd8000000d90:	d503201f 	nop
    fd8000000d94:	d503201f 	nop
    fd8000000d98:	d503201f 	nop
    fd8000000d9c:	d503201f 	nop
    fd8000000da0:	d503201f 	nop
    fd8000000da4:	d503201f 	nop
    fd8000000da8:	d503201f 	nop
    fd8000000dac:	d503201f 	nop
    fd8000000db0:	d503201f 	nop
    fd8000000db4:	d503201f 	nop
    fd8000000db8:	d503201f 	nop
    fd8000000dbc:	d503201f 	nop
    fd8000000dc0:	d503201f 	nop
    fd8000000dc4:	d503201f 	nop
    fd8000000dc8:	d503201f 	nop
    fd8000000dcc:	d503201f 	nop
    fd8000000dd0:	d503201f 	nop
    fd8000000dd4:	d503201f 	nop
    fd8000000dd8:	d503201f 	nop
    fd8000000ddc:	d503201f 	nop
    fd8000000de0:	d503201f 	nop
    fd8000000de4:	d503201f 	nop
    fd8000000de8:	d503201f 	nop
    fd8000000dec:	d503201f 	nop
    fd8000000df0:	d503201f 	nop
    fd8000000df4:	d503201f 	nop
    fd8000000df8:	d503201f 	nop
    fd8000000dfc:	d503201f 	nop
    fd8000000e00:	d503201f 	nop
    fd8000000e04:	d503201f 	nop
    fd8000000e08:	d503201f 	nop
    fd8000000e0c:	d503201f 	nop
    fd8000000e10:	d503201f 	nop
    fd8000000e14:	d503201f 	nop
    fd8000000e18:	d503201f 	nop
    fd8000000e1c:	d503201f 	nop
    fd8000000e20:	d503201f 	nop
    fd8000000e24:	d503201f 	nop
    fd8000000e28:	d503201f 	nop
    fd8000000e2c:	d503201f 	nop
    fd8000000e30:	d503201f 	nop
    fd8000000e34:	d503201f 	nop
    fd8000000e38:	d503201f 	nop
    fd8000000e3c:	d503201f 	nop
    fd8000000e40:	d503201f 	nop
    fd8000000e44:	d503201f 	nop
    fd8000000e48:	d503201f 	nop
    fd8000000e4c:	d503201f 	nop
    fd8000000e50:	d503201f 	nop
    fd8000000e54:	d503201f 	nop
    fd8000000e58:	d503201f 	nop
    fd8000000e5c:	d503201f 	nop
    fd8000000e60:	d503201f 	nop
    fd8000000e64:	d503201f 	nop
    fd8000000e68:	d503201f 	nop
    fd8000000e6c:	d503201f 	nop
    fd8000000e70:	d503201f 	nop
    fd8000000e74:	d503201f 	nop
    fd8000000e78:	d503201f 	nop
    fd8000000e7c:	d503201f 	nop
    fd8000000e80:	d503201f 	nop
    fd8000000e84:	d503201f 	nop
    fd8000000e88:	d503201f 	nop
    fd8000000e8c:	d503201f 	nop
    fd8000000e90:	d503201f 	nop
    fd8000000e94:	d503201f 	nop
    fd8000000e98:	d503201f 	nop
    fd8000000e9c:	d503201f 	nop
    fd8000000ea0:	d503201f 	nop
    fd8000000ea4:	d503201f 	nop
    fd8000000ea8:	d503201f 	nop
    fd8000000eac:	d503201f 	nop
    fd8000000eb0:	d503201f 	nop
    fd8000000eb4:	d503201f 	nop
    fd8000000eb8:	d503201f 	nop
    fd8000000ebc:	d503201f 	nop
    fd8000000ec0:	d503201f 	nop
    fd8000000ec4:	d503201f 	nop
    fd8000000ec8:	d503201f 	nop
    fd8000000ecc:	d503201f 	nop
    fd8000000ed0:	d503201f 	nop
    fd8000000ed4:	d503201f 	nop
    fd8000000ed8:	d503201f 	nop
    fd8000000edc:	d503201f 	nop
    fd8000000ee0:	d503201f 	nop
    fd8000000ee4:	d503201f 	nop
    fd8000000ee8:	d503201f 	nop
    fd8000000eec:	d503201f 	nop
    fd8000000ef0:	d503201f 	nop
    fd8000000ef4:	d503201f 	nop
    fd8000000ef8:	d503201f 	nop
    fd8000000efc:	d503201f 	nop
    fd8000000f00:	d503201f 	nop
    fd8000000f04:	d503201f 	nop
    fd8000000f08:	d503201f 	nop
    fd8000000f0c:	d503201f 	nop
    fd8000000f10:	d503201f 	nop
    fd8000000f14:	d503201f 	nop
    fd8000000f18:	d503201f 	nop
    fd8000000f1c:	d503201f 	nop
    fd8000000f20:	d503201f 	nop
    fd8000000f24:	d503201f 	nop
    fd8000000f28:	d503201f 	nop
    fd8000000f2c:	d503201f 	nop
    fd8000000f30:	d503201f 	nop
    fd8000000f34:	d503201f 	nop
    fd8000000f38:	d503201f 	nop
    fd8000000f3c:	d503201f 	nop
    fd8000000f40:	d503201f 	nop
    fd8000000f44:	d503201f 	nop
    fd8000000f48:	d503201f 	nop
    fd8000000f4c:	d503201f 	nop
    fd8000000f50:	d503201f 	nop
    fd8000000f54:	d503201f 	nop
    fd8000000f58:	d503201f 	nop
    fd8000000f5c:	d503201f 	nop
    fd8000000f60:	d503201f 	nop
    fd8000000f64:	d503201f 	nop
    fd8000000f68:	d503201f 	nop
    fd8000000f6c:	d503201f 	nop
    fd8000000f70:	d503201f 	nop
    fd8000000f74:	d503201f 	nop
    fd8000000f78:	d503201f 	nop
    fd8000000f7c:	d503201f 	nop
    fd8000000f80:	d503201f 	nop
    fd8000000f84:	d503201f 	nop
    fd8000000f88:	d503201f 	nop
    fd8000000f8c:	d503201f 	nop
    fd8000000f90:	d503201f 	nop
    fd8000000f94:	d503201f 	nop
    fd8000000f98:	d503201f 	nop
    fd8000000f9c:	d503201f 	nop
    fd8000000fa0:	d503201f 	nop
    fd8000000fa4:	d503201f 	nop
    fd8000000fa8:	d503201f 	nop
    fd8000000fac:	d503201f 	nop
    fd8000000fb0:	d503201f 	nop
    fd8000000fb4:	d503201f 	nop
    fd8000000fb8:	d503201f 	nop
    fd8000000fbc:	d503201f 	nop
    fd8000000fc0:	d503201f 	nop
    fd8000000fc4:	d503201f 	nop
    fd8000000fc8:	d503201f 	nop
    fd8000000fcc:	d503201f 	nop
    fd8000000fd0:	d503201f 	nop
    fd8000000fd4:	d503201f 	nop
    fd8000000fd8:	d503201f 	nop
    fd8000000fdc:	d503201f 	nop
    fd8000000fe0:	d503201f 	nop
    fd8000000fe4:	d503201f 	nop
    fd8000000fe8:	d503201f 	nop
    fd8000000fec:	d503201f 	nop
    fd8000000ff0:	d503201f 	nop
    fd8000000ff4:	d503201f 	nop
    fd8000000ff8:	d503201f 	nop
    fd8000000ffc:	d503201f 	nop

0000fd8000001000 <_hyp_vector_table>:
/* 
 * EL2 with SP0
 */  
.balign ENTRY_SIZE
curr_el_sp0_sync:        
    b	.
    fd8000001000:	14000000 	b	fd8000001000 <_hyp_vector_table>
    fd8000001004:	d503201f 	nop
    fd8000001008:	d503201f 	nop
    fd800000100c:	d503201f 	nop
    fd8000001010:	d503201f 	nop
    fd8000001014:	d503201f 	nop
    fd8000001018:	d503201f 	nop
    fd800000101c:	d503201f 	nop
    fd8000001020:	d503201f 	nop
    fd8000001024:	d503201f 	nop
    fd8000001028:	d503201f 	nop
    fd800000102c:	d503201f 	nop
    fd8000001030:	d503201f 	nop
    fd8000001034:	d503201f 	nop
    fd8000001038:	d503201f 	nop
    fd800000103c:	d503201f 	nop
    fd8000001040:	d503201f 	nop
    fd8000001044:	d503201f 	nop
    fd8000001048:	d503201f 	nop
    fd800000104c:	d503201f 	nop
    fd8000001050:	d503201f 	nop
    fd8000001054:	d503201f 	nop
    fd8000001058:	d503201f 	nop
    fd800000105c:	d503201f 	nop
    fd8000001060:	d503201f 	nop
    fd8000001064:	d503201f 	nop
    fd8000001068:	d503201f 	nop
    fd800000106c:	d503201f 	nop
    fd8000001070:	d503201f 	nop
    fd8000001074:	d503201f 	nop
    fd8000001078:	d503201f 	nop
    fd800000107c:	d503201f 	nop

0000fd8000001080 <curr_el_sp0_irq>:
.balign ENTRY_SIZE
curr_el_sp0_irq:  
    b   .
    fd8000001080:	14000000 	b	fd8000001080 <curr_el_sp0_irq>
    fd8000001084:	d503201f 	nop
    fd8000001088:	d503201f 	nop
    fd800000108c:	d503201f 	nop
    fd8000001090:	d503201f 	nop
    fd8000001094:	d503201f 	nop
    fd8000001098:	d503201f 	nop
    fd800000109c:	d503201f 	nop
    fd80000010a0:	d503201f 	nop
    fd80000010a4:	d503201f 	nop
    fd80000010a8:	d503201f 	nop
    fd80000010ac:	d503201f 	nop
    fd80000010b0:	d503201f 	nop
    fd80000010b4:	d503201f 	nop
    fd80000010b8:	d503201f 	nop
    fd80000010bc:	d503201f 	nop
    fd80000010c0:	d503201f 	nop
    fd80000010c4:	d503201f 	nop
    fd80000010c8:	d503201f 	nop
    fd80000010cc:	d503201f 	nop
    fd80000010d0:	d503201f 	nop
    fd80000010d4:	d503201f 	nop
    fd80000010d8:	d503201f 	nop
    fd80000010dc:	d503201f 	nop
    fd80000010e0:	d503201f 	nop
    fd80000010e4:	d503201f 	nop
    fd80000010e8:	d503201f 	nop
    fd80000010ec:	d503201f 	nop
    fd80000010f0:	d503201f 	nop
    fd80000010f4:	d503201f 	nop
    fd80000010f8:	d503201f 	nop
    fd80000010fc:	d503201f 	nop

0000fd8000001100 <curr_el_sp0_fiq>:
.balign ENTRY_SIZE
curr_el_sp0_fiq:         
    b	.
    fd8000001100:	14000000 	b	fd8000001100 <curr_el_sp0_fiq>
    fd8000001104:	d503201f 	nop
    fd8000001108:	d503201f 	nop
    fd800000110c:	d503201f 	nop
    fd8000001110:	d503201f 	nop
    fd8000001114:	d503201f 	nop
    fd8000001118:	d503201f 	nop
    fd800000111c:	d503201f 	nop
    fd8000001120:	d503201f 	nop
    fd8000001124:	d503201f 	nop
    fd8000001128:	d503201f 	nop
    fd800000112c:	d503201f 	nop
    fd8000001130:	d503201f 	nop
    fd8000001134:	d503201f 	nop
    fd8000001138:	d503201f 	nop
    fd800000113c:	d503201f 	nop
    fd8000001140:	d503201f 	nop
    fd8000001144:	d503201f 	nop
    fd8000001148:	d503201f 	nop
    fd800000114c:	d503201f 	nop
    fd8000001150:	d503201f 	nop
    fd8000001154:	d503201f 	nop
    fd8000001158:	d503201f 	nop
    fd800000115c:	d503201f 	nop
    fd8000001160:	d503201f 	nop
    fd8000001164:	d503201f 	nop
    fd8000001168:	d503201f 	nop
    fd800000116c:	d503201f 	nop
    fd8000001170:	d503201f 	nop
    fd8000001174:	d503201f 	nop
    fd8000001178:	d503201f 	nop
    fd800000117c:	d503201f 	nop

0000fd8000001180 <curr_el_sp0_serror>:
.balign ENTRY_SIZE
curr_el_sp0_serror:      
    b	.
    fd8000001180:	14000000 	b	fd8000001180 <curr_el_sp0_serror>
    fd8000001184:	d503201f 	nop
    fd8000001188:	d503201f 	nop
    fd800000118c:	d503201f 	nop
    fd8000001190:	d503201f 	nop
    fd8000001194:	d503201f 	nop
    fd8000001198:	d503201f 	nop
    fd800000119c:	d503201f 	nop
    fd80000011a0:	d503201f 	nop
    fd80000011a4:	d503201f 	nop
    fd80000011a8:	d503201f 	nop
    fd80000011ac:	d503201f 	nop
    fd80000011b0:	d503201f 	nop
    fd80000011b4:	d503201f 	nop
    fd80000011b8:	d503201f 	nop
    fd80000011bc:	d503201f 	nop
    fd80000011c0:	d503201f 	nop
    fd80000011c4:	d503201f 	nop
    fd80000011c8:	d503201f 	nop
    fd80000011cc:	d503201f 	nop
    fd80000011d0:	d503201f 	nop
    fd80000011d4:	d503201f 	nop
    fd80000011d8:	d503201f 	nop
    fd80000011dc:	d503201f 	nop
    fd80000011e0:	d503201f 	nop
    fd80000011e4:	d503201f 	nop
    fd80000011e8:	d503201f 	nop
    fd80000011ec:	d503201f 	nop
    fd80000011f0:	d503201f 	nop
    fd80000011f4:	d503201f 	nop
    fd80000011f8:	d503201f 	nop
    fd80000011fc:	d503201f 	nop

0000fd8000001200 <curr_el_spx_sync>:
/* 
 * EL2 with SPx
 */  
.balign ENTRY_SIZE  
curr_el_spx_sync:
    SAVE_HYP_GPRS
    fd8000001200:	d10403ff 	sub	sp, sp, #0x100
    fd8000001204:	a90007e0 	stp	x0, x1, [sp]
    fd8000001208:	a9010fe2 	stp	x2, x3, [sp, #16]
    fd800000120c:	a90217e4 	stp	x4, x5, [sp, #32]
    fd8000001210:	a9031fe6 	stp	x6, x7, [sp, #48]
    fd8000001214:	a90427e8 	stp	x8, x9, [sp, #64]
    fd8000001218:	a9052fea 	stp	x10, x11, [sp, #80]
    fd800000121c:	a90637ec 	stp	x12, x13, [sp, #96]
    fd8000001220:	a9073fee 	stp	x14, x15, [sp, #112]
    fd8000001224:	a90847f0 	stp	x16, x17, [sp, #128]
    fd8000001228:	a9094ff2 	stp	x18, x19, [sp, #144]
    fd800000122c:	a90a57f4 	stp	x20, x21, [sp, #160]
    fd8000001230:	a90b5ff6 	stp	x22, x23, [sp, #176]
    fd8000001234:	a90c67f8 	stp	x24, x25, [sp, #192]
    fd8000001238:	a90d6ffa 	stp	x26, x27, [sp, #208]
    fd800000123c:	a90e77fc 	stp	x28, x29, [sp, #224]
    fd8000001240:	910003fd 	mov	x29, sp
    fd8000001244:	910403bd 	add	x29, x29, #0x100
    fd8000001248:	a90f77fe 	stp	x30, x29, [sp, #240]
    mov x0, sp
    fd800000124c:	910003e0 	mov	x0, sp
    bl	internal_abort_handler        
    fd8000001250:	9400018c 	bl	fd8000001880 <internal_abort_handler>
    b	.
    fd8000001254:	14000000 	b	fd8000001254 <curr_el_spx_sync+0x54>
    fd8000001258:	d503201f 	nop
    fd800000125c:	d503201f 	nop
    fd8000001260:	d503201f 	nop
    fd8000001264:	d503201f 	nop
    fd8000001268:	d503201f 	nop
    fd800000126c:	d503201f 	nop
    fd8000001270:	d503201f 	nop
    fd8000001274:	d503201f 	nop
    fd8000001278:	d503201f 	nop
    fd800000127c:	d503201f 	nop

0000fd8000001280 <curr_el_spx_irq>:
.balign ENTRY_SIZE
curr_el_spx_irq:         
    b	.
    fd8000001280:	14000000 	b	fd8000001280 <curr_el_spx_irq>
    fd8000001284:	d503201f 	nop
    fd8000001288:	d503201f 	nop
    fd800000128c:	d503201f 	nop
    fd8000001290:	d503201f 	nop
    fd8000001294:	d503201f 	nop
    fd8000001298:	d503201f 	nop
    fd800000129c:	d503201f 	nop
    fd80000012a0:	d503201f 	nop
    fd80000012a4:	d503201f 	nop
    fd80000012a8:	d503201f 	nop
    fd80000012ac:	d503201f 	nop
    fd80000012b0:	d503201f 	nop
    fd80000012b4:	d503201f 	nop
    fd80000012b8:	d503201f 	nop
    fd80000012bc:	d503201f 	nop
    fd80000012c0:	d503201f 	nop
    fd80000012c4:	d503201f 	nop
    fd80000012c8:	d503201f 	nop
    fd80000012cc:	d503201f 	nop
    fd80000012d0:	d503201f 	nop
    fd80000012d4:	d503201f 	nop
    fd80000012d8:	d503201f 	nop
    fd80000012dc:	d503201f 	nop
    fd80000012e0:	d503201f 	nop
    fd80000012e4:	d503201f 	nop
    fd80000012e8:	d503201f 	nop
    fd80000012ec:	d503201f 	nop
    fd80000012f0:	d503201f 	nop
    fd80000012f4:	d503201f 	nop
    fd80000012f8:	d503201f 	nop
    fd80000012fc:	d503201f 	nop

0000fd8000001300 <curr_el_spx_fiq>:
.balign ENTRY_SIZE
curr_el_spx_fiq:         
    b	.
    fd8000001300:	14000000 	b	fd8000001300 <curr_el_spx_fiq>
    fd8000001304:	d503201f 	nop
    fd8000001308:	d503201f 	nop
    fd800000130c:	d503201f 	nop
    fd8000001310:	d503201f 	nop
    fd8000001314:	d503201f 	nop
    fd8000001318:	d503201f 	nop
    fd800000131c:	d503201f 	nop
    fd8000001320:	d503201f 	nop
    fd8000001324:	d503201f 	nop
    fd8000001328:	d503201f 	nop
    fd800000132c:	d503201f 	nop
    fd8000001330:	d503201f 	nop
    fd8000001334:	d503201f 	nop
    fd8000001338:	d503201f 	nop
    fd800000133c:	d503201f 	nop
    fd8000001340:	d503201f 	nop
    fd8000001344:	d503201f 	nop
    fd8000001348:	d503201f 	nop
    fd800000134c:	d503201f 	nop
    fd8000001350:	d503201f 	nop
    fd8000001354:	d503201f 	nop
    fd8000001358:	d503201f 	nop
    fd800000135c:	d503201f 	nop
    fd8000001360:	d503201f 	nop
    fd8000001364:	d503201f 	nop
    fd8000001368:	d503201f 	nop
    fd800000136c:	d503201f 	nop
    fd8000001370:	d503201f 	nop
    fd8000001374:	d503201f 	nop
    fd8000001378:	d503201f 	nop
    fd800000137c:	d503201f 	nop

0000fd8000001380 <curr_el_spx_serror>:
.balign ENTRY_SIZE
curr_el_spx_serror:
    SAVE_HYP_GPRS
    fd8000001380:	d10403ff 	sub	sp, sp, #0x100
    fd8000001384:	a90007e0 	stp	x0, x1, [sp]
    fd8000001388:	a9010fe2 	stp	x2, x3, [sp, #16]
    fd800000138c:	a90217e4 	stp	x4, x5, [sp, #32]
    fd8000001390:	a9031fe6 	stp	x6, x7, [sp, #48]
    fd8000001394:	a90427e8 	stp	x8, x9, [sp, #64]
    fd8000001398:	a9052fea 	stp	x10, x11, [sp, #80]
    fd800000139c:	a90637ec 	stp	x12, x13, [sp, #96]
    fd80000013a0:	a9073fee 	stp	x14, x15, [sp, #112]
    fd80000013a4:	a90847f0 	stp	x16, x17, [sp, #128]
    fd80000013a8:	a9094ff2 	stp	x18, x19, [sp, #144]
    fd80000013ac:	a90a57f4 	stp	x20, x21, [sp, #160]
    fd80000013b0:	a90b5ff6 	stp	x22, x23, [sp, #176]
    fd80000013b4:	a90c67f8 	stp	x24, x25, [sp, #192]
    fd80000013b8:	a90d6ffa 	stp	x26, x27, [sp, #208]
    fd80000013bc:	a90e77fc 	stp	x28, x29, [sp, #224]
    fd80000013c0:	910003fd 	mov	x29, sp
    fd80000013c4:	910403bd 	add	x29, x29, #0x100
    fd80000013c8:	a90f77fe 	stp	x30, x29, [sp, #240]
    mov x0, sp
    fd80000013cc:	910003e0 	mov	x0, sp
    bl	internal_abort_handler       
    fd80000013d0:	9400012c 	bl	fd8000001880 <internal_abort_handler>
    b	.         
    fd80000013d4:	14000000 	b	fd80000013d4 <curr_el_spx_serror+0x54>
    fd80000013d8:	d503201f 	nop
    fd80000013dc:	d503201f 	nop
    fd80000013e0:	d503201f 	nop
    fd80000013e4:	d503201f 	nop
    fd80000013e8:	d503201f 	nop
    fd80000013ec:	d503201f 	nop
    fd80000013f0:	d503201f 	nop
    fd80000013f4:	d503201f 	nop
    fd80000013f8:	d503201f 	nop
    fd80000013fc:	d503201f 	nop

0000fd8000001400 <lower_el_aarch64_sync>:
 * Lower EL using AArch64
 */  

.balign ENTRY_SIZE
lower_el_aarch64_sync:
    VM_EXIT
    fd8000001400:	a90007e0 	stp	x0, x1, [sp]
    fd8000001404:	a9010fe2 	stp	x2, x3, [sp, #16]
    fd8000001408:	a90217e4 	stp	x4, x5, [sp, #32]
    fd800000140c:	a9031fe6 	stp	x6, x7, [sp, #48]
    fd8000001410:	a90427e8 	stp	x8, x9, [sp, #64]
    fd8000001414:	a9052fea 	stp	x10, x11, [sp, #80]
    fd8000001418:	a90637ec 	stp	x12, x13, [sp, #96]
    fd800000141c:	a9073fee 	stp	x14, x15, [sp, #112]
    fd8000001420:	a90847f0 	stp	x16, x17, [sp, #128]
    fd8000001424:	a9094ff2 	stp	x18, x19, [sp, #144]
    fd8000001428:	a90a57f4 	stp	x20, x21, [sp, #160]
    fd800000142c:	a90b5ff6 	stp	x22, x23, [sp, #176]
    fd8000001430:	a90c67f8 	stp	x24, x25, [sp, #192]
    fd8000001434:	a90d6ffa 	stp	x26, x27, [sp, #208]
    fd8000001438:	a90e77fc 	stp	x28, x29, [sp, #224]
    fd800000143c:	f9007bfe 	str	x30, [sp, #240]
    fd8000001440:	d53c4020 	mrs	x0, elr_el2
    fd8000001444:	d53c4001 	mrs	x1, spsr_el2
    fd8000001448:	a90f87e0 	stp	x0, x1, [sp, #248]
    fd800000144c:	d53cd040 	mrs	x0, tpidr_el2
    fd8000001450:	58001d81 	ldr	x1, fd8000001800 <lower_el_aarch32_serror+0x80>
    fd8000001454:	8b010000 	add	x0, x0, x1
    fd8000001458:	9100001f 	mov	sp, x0
    bl	aborts_sync_handler
    fd800000145c:	9400097d 	bl	fd8000003a50 <aborts_sync_handler>
    b   vcpu_arch_entry
    fd8000001460:	17fffce8 	b	fd8000000800 <vcpu_arch_entry>
    fd8000001464:	d503201f 	nop
    fd8000001468:	d503201f 	nop
    fd800000146c:	d503201f 	nop
    fd8000001470:	d503201f 	nop
    fd8000001474:	d503201f 	nop
    fd8000001478:	d503201f 	nop
    fd800000147c:	d503201f 	nop

0000fd8000001480 <lower_el_aarch64_irq>:
.balign ENTRY_SIZE
lower_el_aarch64_irq:    
    VM_EXIT
    fd8000001480:	a90007e0 	stp	x0, x1, [sp]
    fd8000001484:	a9010fe2 	stp	x2, x3, [sp, #16]
    fd8000001488:	a90217e4 	stp	x4, x5, [sp, #32]
    fd800000148c:	a9031fe6 	stp	x6, x7, [sp, #48]
    fd8000001490:	a90427e8 	stp	x8, x9, [sp, #64]
    fd8000001494:	a9052fea 	stp	x10, x11, [sp, #80]
    fd8000001498:	a90637ec 	stp	x12, x13, [sp, #96]
    fd800000149c:	a9073fee 	stp	x14, x15, [sp, #112]
    fd80000014a0:	a90847f0 	stp	x16, x17, [sp, #128]
    fd80000014a4:	a9094ff2 	stp	x18, x19, [sp, #144]
    fd80000014a8:	a90a57f4 	stp	x20, x21, [sp, #160]
    fd80000014ac:	a90b5ff6 	stp	x22, x23, [sp, #176]
    fd80000014b0:	a90c67f8 	stp	x24, x25, [sp, #192]
    fd80000014b4:	a90d6ffa 	stp	x26, x27, [sp, #208]
    fd80000014b8:	a90e77fc 	stp	x28, x29, [sp, #224]
    fd80000014bc:	f9007bfe 	str	x30, [sp, #240]
    fd80000014c0:	d53c4020 	mrs	x0, elr_el2
    fd80000014c4:	d53c4001 	mrs	x1, spsr_el2
    fd80000014c8:	a90f87e0 	stp	x0, x1, [sp, #248]
    fd80000014cc:	d53cd040 	mrs	x0, tpidr_el2
    fd80000014d0:	58001981 	ldr	x1, fd8000001800 <lower_el_aarch32_serror+0x80>
    fd80000014d4:	8b010000 	add	x0, x0, x1
    fd80000014d8:	9100001f 	mov	sp, x0
    bl  gic_handle
    fd80000014dc:	94000aa5 	bl	fd8000003f70 <gic_handle>
    b   vcpu_arch_entry
    fd80000014e0:	17fffcc8 	b	fd8000000800 <vcpu_arch_entry>
    fd80000014e4:	d503201f 	nop
    fd80000014e8:	d503201f 	nop
    fd80000014ec:	d503201f 	nop
    fd80000014f0:	d503201f 	nop
    fd80000014f4:	d503201f 	nop
    fd80000014f8:	d503201f 	nop
    fd80000014fc:	d503201f 	nop

0000fd8000001500 <lower_el_aarch64_fiq>:
.balign ENTRY_SIZE
lower_el_aarch64_fiq:    
    b	.
    fd8000001500:	14000000 	b	fd8000001500 <lower_el_aarch64_fiq>
    fd8000001504:	d503201f 	nop
    fd8000001508:	d503201f 	nop
    fd800000150c:	d503201f 	nop
    fd8000001510:	d503201f 	nop
    fd8000001514:	d503201f 	nop
    fd8000001518:	d503201f 	nop
    fd800000151c:	d503201f 	nop
    fd8000001520:	d503201f 	nop
    fd8000001524:	d503201f 	nop
    fd8000001528:	d503201f 	nop
    fd800000152c:	d503201f 	nop
    fd8000001530:	d503201f 	nop
    fd8000001534:	d503201f 	nop
    fd8000001538:	d503201f 	nop
    fd800000153c:	d503201f 	nop
    fd8000001540:	d503201f 	nop
    fd8000001544:	d503201f 	nop
    fd8000001548:	d503201f 	nop
    fd800000154c:	d503201f 	nop
    fd8000001550:	d503201f 	nop
    fd8000001554:	d503201f 	nop
    fd8000001558:	d503201f 	nop
    fd800000155c:	d503201f 	nop
    fd8000001560:	d503201f 	nop
    fd8000001564:	d503201f 	nop
    fd8000001568:	d503201f 	nop
    fd800000156c:	d503201f 	nop
    fd8000001570:	d503201f 	nop
    fd8000001574:	d503201f 	nop
    fd8000001578:	d503201f 	nop
    fd800000157c:	d503201f 	nop

0000fd8000001580 <lower_el_aarch64_serror>:
.balign ENTRY_SIZE
lower_el_aarch64_serror: 
    b	.          
    fd8000001580:	14000000 	b	fd8000001580 <lower_el_aarch64_serror>
    fd8000001584:	d503201f 	nop
    fd8000001588:	d503201f 	nop
    fd800000158c:	d503201f 	nop
    fd8000001590:	d503201f 	nop
    fd8000001594:	d503201f 	nop
    fd8000001598:	d503201f 	nop
    fd800000159c:	d503201f 	nop
    fd80000015a0:	d503201f 	nop
    fd80000015a4:	d503201f 	nop
    fd80000015a8:	d503201f 	nop
    fd80000015ac:	d503201f 	nop
    fd80000015b0:	d503201f 	nop
    fd80000015b4:	d503201f 	nop
    fd80000015b8:	d503201f 	nop
    fd80000015bc:	d503201f 	nop
    fd80000015c0:	d503201f 	nop
    fd80000015c4:	d503201f 	nop
    fd80000015c8:	d503201f 	nop
    fd80000015cc:	d503201f 	nop
    fd80000015d0:	d503201f 	nop
    fd80000015d4:	d503201f 	nop
    fd80000015d8:	d503201f 	nop
    fd80000015dc:	d503201f 	nop
    fd80000015e0:	d503201f 	nop
    fd80000015e4:	d503201f 	nop
    fd80000015e8:	d503201f 	nop
    fd80000015ec:	d503201f 	nop
    fd80000015f0:	d503201f 	nop
    fd80000015f4:	d503201f 	nop
    fd80000015f8:	d503201f 	nop
    fd80000015fc:	d503201f 	nop

0000fd8000001600 <lower_el_aarch32_sync>:
/* 
 * Lower EL using AArch32
 */  
.balign ENTRY_SIZE   
lower_el_aarch32_sync:   
    b	.
    fd8000001600:	14000000 	b	fd8000001600 <lower_el_aarch32_sync>
    fd8000001604:	d503201f 	nop
    fd8000001608:	d503201f 	nop
    fd800000160c:	d503201f 	nop
    fd8000001610:	d503201f 	nop
    fd8000001614:	d503201f 	nop
    fd8000001618:	d503201f 	nop
    fd800000161c:	d503201f 	nop
    fd8000001620:	d503201f 	nop
    fd8000001624:	d503201f 	nop
    fd8000001628:	d503201f 	nop
    fd800000162c:	d503201f 	nop
    fd8000001630:	d503201f 	nop
    fd8000001634:	d503201f 	nop
    fd8000001638:	d503201f 	nop
    fd800000163c:	d503201f 	nop
    fd8000001640:	d503201f 	nop
    fd8000001644:	d503201f 	nop
    fd8000001648:	d503201f 	nop
    fd800000164c:	d503201f 	nop
    fd8000001650:	d503201f 	nop
    fd8000001654:	d503201f 	nop
    fd8000001658:	d503201f 	nop
    fd800000165c:	d503201f 	nop
    fd8000001660:	d503201f 	nop
    fd8000001664:	d503201f 	nop
    fd8000001668:	d503201f 	nop
    fd800000166c:	d503201f 	nop
    fd8000001670:	d503201f 	nop
    fd8000001674:	d503201f 	nop
    fd8000001678:	d503201f 	nop
    fd800000167c:	d503201f 	nop

0000fd8000001680 <lower_el_aarch32_irq>:
.balign ENTRY_SIZE
lower_el_aarch32_irq:    
    b	.
    fd8000001680:	14000000 	b	fd8000001680 <lower_el_aarch32_irq>
    fd8000001684:	d503201f 	nop
    fd8000001688:	d503201f 	nop
    fd800000168c:	d503201f 	nop
    fd8000001690:	d503201f 	nop
    fd8000001694:	d503201f 	nop
    fd8000001698:	d503201f 	nop
    fd800000169c:	d503201f 	nop
    fd80000016a0:	d503201f 	nop
    fd80000016a4:	d503201f 	nop
    fd80000016a8:	d503201f 	nop
    fd80000016ac:	d503201f 	nop
    fd80000016b0:	d503201f 	nop
    fd80000016b4:	d503201f 	nop
    fd80000016b8:	d503201f 	nop
    fd80000016bc:	d503201f 	nop
    fd80000016c0:	d503201f 	nop
    fd80000016c4:	d503201f 	nop
    fd80000016c8:	d503201f 	nop
    fd80000016cc:	d503201f 	nop
    fd80000016d0:	d503201f 	nop
    fd80000016d4:	d503201f 	nop
    fd80000016d8:	d503201f 	nop
    fd80000016dc:	d503201f 	nop
    fd80000016e0:	d503201f 	nop
    fd80000016e4:	d503201f 	nop
    fd80000016e8:	d503201f 	nop
    fd80000016ec:	d503201f 	nop
    fd80000016f0:	d503201f 	nop
    fd80000016f4:	d503201f 	nop
    fd80000016f8:	d503201f 	nop
    fd80000016fc:	d503201f 	nop

0000fd8000001700 <lower_el_aarch32_fiq>:
.balign ENTRY_SIZE
lower_el_aarch32_fiq:    
    b	.
    fd8000001700:	14000000 	b	fd8000001700 <lower_el_aarch32_fiq>
    fd8000001704:	d503201f 	nop
    fd8000001708:	d503201f 	nop
    fd800000170c:	d503201f 	nop
    fd8000001710:	d503201f 	nop
    fd8000001714:	d503201f 	nop
    fd8000001718:	d503201f 	nop
    fd800000171c:	d503201f 	nop
    fd8000001720:	d503201f 	nop
    fd8000001724:	d503201f 	nop
    fd8000001728:	d503201f 	nop
    fd800000172c:	d503201f 	nop
    fd8000001730:	d503201f 	nop
    fd8000001734:	d503201f 	nop
    fd8000001738:	d503201f 	nop
    fd800000173c:	d503201f 	nop
    fd8000001740:	d503201f 	nop
    fd8000001744:	d503201f 	nop
    fd8000001748:	d503201f 	nop
    fd800000174c:	d503201f 	nop
    fd8000001750:	d503201f 	nop
    fd8000001754:	d503201f 	nop
    fd8000001758:	d503201f 	nop
    fd800000175c:	d503201f 	nop
    fd8000001760:	d503201f 	nop
    fd8000001764:	d503201f 	nop
    fd8000001768:	d503201f 	nop
    fd800000176c:	d503201f 	nop
    fd8000001770:	d503201f 	nop
    fd8000001774:	d503201f 	nop
    fd8000001778:	d503201f 	nop
    fd800000177c:	d503201f 	nop

0000fd8000001780 <lower_el_aarch32_serror>:
.balign ENTRY_SIZE
lower_el_aarch32_serror: 
    b	.
    fd8000001780:	14000000 	b	fd8000001780 <lower_el_aarch32_serror>
    fd8000001784:	d503201f 	nop
    fd8000001788:	d503201f 	nop
    fd800000178c:	d503201f 	nop
    fd8000001790:	d503201f 	nop
    fd8000001794:	d503201f 	nop
    fd8000001798:	d503201f 	nop
    fd800000179c:	d503201f 	nop
    fd80000017a0:	d503201f 	nop
    fd80000017a4:	d503201f 	nop
    fd80000017a8:	d503201f 	nop
    fd80000017ac:	d503201f 	nop
    fd80000017b0:	d503201f 	nop
    fd80000017b4:	d503201f 	nop
    fd80000017b8:	d503201f 	nop
    fd80000017bc:	d503201f 	nop
    fd80000017c0:	d503201f 	nop
    fd80000017c4:	d503201f 	nop
    fd80000017c8:	d503201f 	nop
    fd80000017cc:	d503201f 	nop
    fd80000017d0:	d503201f 	nop
    fd80000017d4:	d503201f 	nop
    fd80000017d8:	d503201f 	nop
    fd80000017dc:	d503201f 	nop
    fd80000017e0:	d503201f 	nop
    fd80000017e4:	d503201f 	nop
    fd80000017e8:	d503201f 	nop
    fd80000017ec:	d503201f 	nop
    fd80000017f0:	d503201f 	nop
    fd80000017f4:	d503201f 	nop
    fd80000017f8:	d503201f 	nop
    fd80000017fc:	d503201f 	nop
    fd8000001800:	00002000 	.word	0x00002000
	...

0000fd8000001810 <vcpu_readreg>:
#include <vm.h>
#include <arch/sysregs.h>

unsigned long vcpu_readreg(struct vcpu* vcpu, unsigned long reg)
{
    if (reg > 30) {
    fd8000001810:	f100783f 	cmp	x1, #0x1e
    fd8000001814:	54000088 	b.hi	fd8000001824 <vcpu_readreg+0x14>  // b.pmore
        return 0;
    }
    return vcpu->regs.x[reg];
    fd8000001818:	91000821 	add	x1, x1, #0x2
    fd800000181c:	f8617800 	ldr	x0, [x0, x1, lsl #3]
}
    fd8000001820:	d65f03c0 	ret
        return 0;
    fd8000001824:	d2800000 	mov	x0, #0x0                   	// #0
}
    fd8000001828:	d65f03c0 	ret
    fd800000182c:	d503201f 	nop

0000fd8000001830 <vcpu_writereg>:

void vcpu_writereg(struct vcpu* vcpu, unsigned long reg, unsigned long val)
{
    if (reg > 30) {
    fd8000001830:	f100783f 	cmp	x1, #0x1e
    fd8000001834:	54000068 	b.hi	fd8000001840 <vcpu_writereg+0x10>  // b.pmore
        return;
    }
    vcpu->regs.x[reg] = val;
    fd8000001838:	91000821 	add	x1, x1, #0x2
    fd800000183c:	f8217802 	str	x2, [x0, x1, lsl #3]
}
    fd8000001840:	d65f03c0 	ret
    fd8000001844:	d503201f 	nop
    fd8000001848:	d503201f 	nop
    fd800000184c:	d503201f 	nop

0000fd8000001850 <vcpu_readpc>:

unsigned long vcpu_readpc(struct vcpu* vcpu)
{
    return vcpu->regs.elr_el2;
}
    fd8000001850:	f9408400 	ldr	x0, [x0, #264]
    fd8000001854:	d65f03c0 	ret
    fd8000001858:	d503201f 	nop
    fd800000185c:	d503201f 	nop

0000fd8000001860 <vcpu_writepc>:

void vcpu_writepc(struct vcpu* vcpu, unsigned long pc)
{
    vcpu->regs.elr_el2 = pc;
    fd8000001860:	f9008401 	str	x1, [x0, #264]
}
    fd8000001864:	d65f03c0 	ret
    fd8000001868:	d503201f 	nop
    fd800000186c:	d503201f 	nop

0000fd8000001870 <vcpu_subarch_reset>:

void vcpu_subarch_reset(struct vcpu* vcpu)
{
    vcpu->regs.spsr_el2 = SPSR_EL1h | SPSR_F | SPSR_I | SPSR_A | SPSR_D;
    fd8000001870:	d28078a1 	mov	x1, #0x3c5                 	// #965
    fd8000001874:	f9008801 	str	x1, [x0, #272]
}
    fd8000001878:	d65f03c0 	ret
    fd800000187c:	00000000 	udf	#0

0000fd8000001880 <internal_abort_handler>:
#include <bao.h>
#include <arch/sysregs.h>
#include <cpu.h>

void internal_abort_handler(unsigned long gprs[])
{
    fd8000001880:	a9bd7bfd 	stp	x29, x30, [sp, #-48]!
    fd8000001884:	910003fd 	mov	x29, sp
    fd8000001888:	f90013f5 	str	x21, [sp, #32]
    fd800000188c:	90000001 	adrp	x1, fd8000001000 <_hyp_vector_table>
    fd8000001890:	f9448c35 	ldr	x21, [x1, #2328]
    fd8000001894:	a90153f3 	stp	x19, x20, [sp, #16]
    fd8000001898:	aa0003f4 	mov	x20, x0
    for (size_t i = 0; i < 31; i++) {
    fd800000189c:	d2800013 	mov	x19, #0x0                   	// #0
        console_printk("x%d:\t\t0x%0lx\n", i, gprs[i]);
    fd80000018a0:	f8737a82 	ldr	x2, [x20, x19, lsl #3]
    fd80000018a4:	aa1303e1 	mov	x1, x19
    fd80000018a8:	aa1503e0 	mov	x0, x21
    for (size_t i = 0; i < 31; i++) {
    fd80000018ac:	91000673 	add	x19, x19, #0x1
        console_printk("x%d:\t\t0x%0lx\n", i, gprs[i]);
    fd80000018b0:	94002bb4 	bl	fd800000c780 <console_printk>
    for (size_t i = 0; i < 31; i++) {
    fd80000018b4:	f1007e7f 	cmp	x19, #0x1f
    fd80000018b8:	54ffff41 	b.ne	fd80000018a0 <internal_abort_handler+0x20>  // b.any
    }
    console_printk("SP:\t\t0x%0lx\n", gprs[31]);
    fd80000018bc:	f9407e81 	ldr	x1, [x20, #248]
    fd80000018c0:	90000000 	adrp	x0, fd8000001000 <_hyp_vector_table>
    fd80000018c4:	f9449000 	ldr	x0, [x0, #2336]
    fd80000018c8:	94002bae 	bl	fd800000c780 <console_printk>
        asm volatile("msr " XSTR(name) ", %0\n\r" ::"r"(val));    \
    }

#define SYSREG_GEN_ACCESSORS(reg) SYSREG_GEN_ACCESSORS_NAME(_##reg##_, reg)

SYSREG_GEN_ACCESSORS(esr_el2);
    fd80000018cc:	d53c5201 	mrs	x1, esr_el2
    console_printk("ESR:\t0x%0lx\n", sysreg_esr_el2_read());
    fd80000018d0:	90000000 	adrp	x0, fd8000001000 <_hyp_vector_table>
    fd80000018d4:	f9449400 	ldr	x0, [x0, #2344]
    fd80000018d8:	94002baa 	bl	fd800000c780 <console_printk>
SYSREG_GEN_ACCESSORS(elr_el2);
    fd80000018dc:	d53c4021 	mrs	x1, elr_el2
    console_printk("ELR:\t0x%0lx\n", sysreg_elr_el2_read());
    fd80000018e0:	90000000 	adrp	x0, fd8000001000 <_hyp_vector_table>
    fd80000018e4:	f9449800 	ldr	x0, [x0, #2352]
    fd80000018e8:	94002ba6 	bl	fd800000c780 <console_printk>
SYSREG_GEN_ACCESSORS(far_el2);
    fd80000018ec:	d53c6001 	mrs	x1, far_el2
    console_printk("FAR:\t0x%0lx\n", sysreg_far_el2_read());
    fd80000018f0:	90000000 	adrp	x0, fd8000001000 <_hyp_vector_table>
    fd80000018f4:	f9449c00 	ldr	x0, [x0, #2360]
    fd80000018f8:	94002ba2 	bl	fd800000c780 <console_printk>
    ERROR("cpu%d internal hypervisor abort - PANIC\n", cpu()->id);
    fd80000018fc:	d2dfc001 	mov	x1, #0xfe0000000000        	// #279275953455104
    fd8000001900:	90000000 	adrp	x0, fd8000001000 <_hyp_vector_table>
    fd8000001904:	f944a000 	ldr	x0, [x0, #2368]
    fd8000001908:	f9400021 	ldr	x1, [x1]
    fd800000190c:	94002b9d 	bl	fd800000c780 <console_printk>
    fd8000001910:	14000000 	b	fd8000001910 <internal_abort_handler+0x90>
    fd8000001914:	d503201f 	nop
    fd8000001918:	00010000 	.word	0x00010000
    fd800000191c:	0000fd80 	.word	0x0000fd80
    fd8000001920:	00010010 	.word	0x00010010
    fd8000001924:	0000fd80 	.word	0x0000fd80
    fd8000001928:	00010020 	.word	0x00010020
    fd800000192c:	0000fd80 	.word	0x0000fd80
    fd8000001930:	00010030 	.word	0x00010030
    fd8000001934:	0000fd80 	.word	0x0000fd80
    fd8000001938:	00010040 	.word	0x00010040
    fd800000193c:	0000fd80 	.word	0x0000fd80
    fd8000001940:	00010050 	.word	0x00010050
    fd8000001944:	0000fd80 	.word	0x0000fd80
	...

0000fd8000001950 <pt_set_recursive>:
struct page_table_dscr* vm_pt_dscr = &armv8_pt_s2_dscr;

size_t parange __attribute__((section(".data")));

void pt_set_recursive(struct page_table* pt, size_t index)
{
    fd8000001950:	a9bd7bfd 	stp	x29, x30, [sp, #-48]!
    fd8000001954:	910003fd 	mov	x29, sp
    fd8000001958:	a90153f3 	stp	x19, x20, [sp, #16]
    fd800000195c:	aa0003f3 	mov	x19, x0
    fd8000001960:	aa0103f4 	mov	x20, x1
    paddr_t pa;
    mem_translate(&cpu()->as, (vaddr_t)pt->root, &pa);
    fd8000001964:	d2800200 	mov	x0, #0x10                  	// #16
    fd8000001968:	9100a3e2 	add	x2, sp, #0x28
    fd800000196c:	f9400261 	ldr	x1, [x19]
    fd8000001970:	f2dfc000 	movk	x0, #0xfe00, lsl #32
    fd8000001974:	9400007f 	bl	fd8000001b70 <mem_translate>
    pte_t* pte = cpu()->as.pt.root + index;
    fd8000001978:	d2dfc001 	mov	x1, #0xfe0000000000        	// #279275953455104

void pt_set_recursive(struct page_table* pt, size_t index);

static inline void pte_set(pte_t* pte, paddr_t addr, pte_type_t type, pte_flags_t flags)
{
    *pte = (addr & PTE_ADDR_MSK) | ((type | flags) & PTE_FLAGS_MSK);
    fd800000197c:	d280e8e4 	mov	x4, #0x747                 	// #1863
    fd8000001980:	f94017e0 	ldr	x0, [sp, #40]
    fd8000001984:	f9400823 	ldr	x3, [x1, #16]
    fd8000001988:	92748c00 	and	x0, x0, #0xfffffffff000
    pte_set(pte, pa, PTE_TABLE, PTE_HYP_FLAGS);
    pt->arch.rec_ind = index;
    pt->arch.rec_mask = 0;
    size_t cpu_rec_ind = cpu()->as.pt.arch.rec_ind;
    for (size_t i = 0; i < pt->dscr->lvls; i++) {
    fd800000198c:	f9400662 	ldr	x2, [x19, #8]
    fd8000001990:	aa040000 	orr	x0, x0, x4
    fd8000001994:	f8347860 	str	x0, [x3, x20, lsl #3]
    fd8000001998:	f9400040 	ldr	x0, [x2]
    pt->arch.rec_ind = index;
    fd800000199c:	a901527f 	stp	xzr, x20, [x19, #16]
    size_t cpu_rec_ind = cpu()->as.pt.arch.rec_ind;
    fd80000019a0:	f9401424 	ldr	x4, [x1, #40]
    for (size_t i = 0; i < pt->dscr->lvls; i++) {
    fd80000019a4:	b4000160 	cbz	x0, fd80000019d0 <pt_set_recursive+0x80>
    fd80000019a8:	f9400442 	ldr	x2, [x2, #8]
        size_t lvl_off = pt->dscr->lvl_off[i];
    fd80000019ac:	d2800003 	mov	x3, #0x0                   	// #0
    fd80000019b0:	8b000c40 	add	x0, x2, x0, lsl #3
    fd80000019b4:	d503201f 	nop
        pt->arch.rec_mask |= cpu_rec_ind << lvl_off;
    fd80000019b8:	f8408441 	ldr	x1, [x2], #8
    for (size_t i = 0; i < pt->dscr->lvls; i++) {
    fd80000019bc:	eb00005f 	cmp	x2, x0
        pt->arch.rec_mask |= cpu_rec_ind << lvl_off;
    fd80000019c0:	9ac12081 	lsl	x1, x4, x1
    fd80000019c4:	aa010063 	orr	x3, x3, x1
    fd80000019c8:	f9000a63 	str	x3, [x19, #16]
    for (size_t i = 0; i < pt->dscr->lvls; i++) {
    fd80000019cc:	54ffff61 	b.ne	fd80000019b8 <pt_set_recursive+0x68>  // b.any
    }
}
    fd80000019d0:	a94153f3 	ldp	x19, x20, [sp, #16]
    fd80000019d4:	a8c37bfd 	ldp	x29, x30, [sp], #48
    fd80000019d8:	d65f03c0 	ret
    fd80000019dc:	d503201f 	nop

0000fd80000019e0 <pt_get_pte>:

pte_t* pt_get_pte(struct page_table* pt, size_t lvl, vaddr_t va)
{
    struct page_table* cpu_pt = &cpu()->as.pt;

    size_t rec_ind_off = cpu_pt->dscr->lvl_off[cpu_pt->dscr->lvls - lvl - 1];
    fd80000019e0:	d2800206 	mov	x6, #0x10                  	// #16
    size_t rec_ind_len = cpu_pt->dscr->lvl_wdt[cpu_pt->dscr->lvls - lvl - 1];
    uintptr_t rec_ind_mask = PTE_MASK(rec_ind_off, rec_ind_len - rec_ind_off);
    uintptr_t addr = cpu_pt->arch.rec_mask & ~PTE_MASK(0, rec_ind_len);
    addr |= (pt->arch.rec_ind << rec_ind_off) & rec_ind_mask;
    addr |= (va >> pt->dscr->lvl_off[lvl]) * sizeof(pte_t) & PTE_MASK(0, rec_ind_off);
    fd80000019e4:	d2800023 	mov	x3, #0x1                   	// #1
    size_t rec_ind_off = cpu_pt->dscr->lvl_off[cpu_pt->dscr->lvls - lvl - 1];
    fd80000019e8:	f2dfc006 	movk	x6, #0xfe00, lsl #32
    addr |= (va >> pt->dscr->lvl_off[lvl]) * sizeof(pte_t) & PTE_MASK(0, rec_ind_off);
    fd80000019ec:	f9400407 	ldr	x7, [x0, #8]
    size_t rec_ind_off = cpu_pt->dscr->lvl_off[cpu_pt->dscr->lvls - lvl - 1];
    fd80000019f0:	f94004c4 	ldr	x4, [x6, #8]
    addr |= (va >> pt->dscr->lvl_off[lvl]) * sizeof(pte_t) & PTE_MASK(0, rec_ind_off);
    fd80000019f4:	f94004e7 	ldr	x7, [x7, #8]
    size_t rec_ind_off = cpu_pt->dscr->lvl_off[cpu_pt->dscr->lvls - lvl - 1];
    fd80000019f8:	a9402085 	ldp	x5, x8, [x4]
    size_t rec_ind_len = cpu_pt->dscr->lvl_wdt[cpu_pt->dscr->lvls - lvl - 1];
    fd80000019fc:	f9400889 	ldr	x9, [x4, #16]
    size_t rec_ind_off = cpu_pt->dscr->lvl_off[cpu_pt->dscr->lvls - lvl - 1];
    fd8000001a00:	cb0100a5 	sub	x5, x5, x1
    fd8000001a04:	d37df0a5 	lsl	x5, x5, #3
    fd8000001a08:	d10020a5 	sub	x5, x5, #0x8
    uintptr_t rec_ind_mask = PTE_MASK(rec_ind_off, rec_ind_len - rec_ind_off);
    fd8000001a0c:	f8656924 	ldr	x4, [x9, x5]
    fd8000001a10:	f8656905 	ldr	x5, [x8, x5]
    fd8000001a14:	51000484 	sub	w4, w4, #0x1
    addr |= (va >> pt->dscr->lvl_off[lvl]) * sizeof(pte_t) & PTE_MASK(0, rec_ind_off);
    fd8000001a18:	f86178e8 	ldr	x8, [x7, x1, lsl #3]
    uintptr_t rec_ind_mask = PTE_MASK(rec_ind_off, rec_ind_len - rec_ind_off);
    fd8000001a1c:	4b050089 	sub	w9, w4, w5
    addr |= (va >> pt->dscr->lvl_off[lvl]) * sizeof(pte_t) & PTE_MASK(0, rec_ind_off);
    fd8000001a20:	510004a1 	sub	w1, w5, #0x1
    uintptr_t addr = cpu_pt->arch.rec_mask & ~PTE_MASK(0, rec_ind_len);
    fd8000001a24:	9ac42064 	lsl	x4, x3, x4
    fd8000001a28:	f94008c7 	ldr	x7, [x6, #16]
    addr |= (va >> pt->dscr->lvl_off[lvl]) * sizeof(pte_t) & PTE_MASK(0, rec_ind_off);
    fd8000001a2c:	9ac12061 	lsl	x1, x3, x1
    addr |= (pt->arch.rec_ind << rec_ind_off) & rec_ind_mask;
    fd8000001a30:	f9400c06 	ldr	x6, [x0, #24]
    uintptr_t rec_ind_mask = PTE_MASK(rec_ind_off, rec_ind_len - rec_ind_off);
    fd8000001a34:	9ac92063 	lsl	x3, x3, x9
    addr |= (va >> pt->dscr->lvl_off[lvl]) * sizeof(pte_t) & PTE_MASK(0, rec_ind_off);
    fd8000001a38:	8b010021 	add	x1, x1, x1
    uintptr_t rec_ind_mask = PTE_MASK(rec_ind_off, rec_ind_len - rec_ind_off);
    fd8000001a3c:	8b030063 	add	x3, x3, x3
    addr |= (va >> pt->dscr->lvl_off[lvl]) * sizeof(pte_t) & PTE_MASK(0, rec_ind_off);
    fd8000001a40:	d1000421 	sub	x1, x1, #0x1
    fd8000001a44:	9ac82440 	lsr	x0, x2, x8
    uintptr_t addr = cpu_pt->arch.rec_mask & ~PTE_MASK(0, rec_ind_len);
    fd8000001a48:	cb0407e4 	neg	x4, x4, lsl #1
    uintptr_t rec_ind_mask = PTE_MASK(rec_ind_off, rec_ind_len - rec_ind_off);
    fd8000001a4c:	d1000463 	sub	x3, x3, #0x1
    uintptr_t addr = cpu_pt->arch.rec_mask & ~PTE_MASK(0, rec_ind_len);
    fd8000001a50:	8a070084 	and	x4, x4, x7
    addr |= (va >> pt->dscr->lvl_off[lvl]) * sizeof(pte_t) & PTE_MASK(0, rec_ind_off);
    fd8000001a54:	8a000c20 	and	x0, x1, x0, lsl #3
    addr |= (pt->arch.rec_ind << rec_ind_off) & rec_ind_mask;
    fd8000001a58:	8a060063 	and	x3, x3, x6
    fd8000001a5c:	aa040000 	orr	x0, x0, x4
    fd8000001a60:	9ac52063 	lsl	x3, x3, x5

    return (pte_t*)addr;
}
    fd8000001a64:	aa000060 	orr	x0, x3, x0
    fd8000001a68:	d65f03c0 	ret
    fd8000001a6c:	d503201f 	nop

0000fd8000001a70 <pt_get>:

pte_t* pt_get(struct page_table* pt, size_t lvl, vaddr_t va)
{
    fd8000001a70:	aa0003eb 	mov	x11, x0
    if (lvl == 0) {
    fd8000001a74:	b4000201 	cbz	x1, fd8000001ab4 <pt_get+0x44>
{
    fd8000001a78:	a9bf7bfd 	stp	x29, x30, [sp, #-16]!
    fd8000001a7c:	aa0103ea 	mov	x10, x1
    fd8000001a80:	910003fd 	mov	x29, sp
        return pt->root;
    }

    uintptr_t pte = (uintptr_t)pt_get_pte(pt, lvl, va);
    fd8000001a84:	97ffffd7 	bl	fd80000019e0 <pt_get_pte>
    pte &= ~(pt_size(pt, lvl) - 1);
    fd8000001a88:	f9400562 	ldr	x2, [x11, #8]
extern struct page_table_dscr* hyp_pt_dscr;
extern struct page_table_dscr* vm_pt_dscr;

static inline size_t pt_nentries(struct page_table* pt, size_t lvl)
{
    return (1ULL << pt->dscr->lvl_wdt[lvl]) >> pt->dscr->lvl_off[lvl];
    fd8000001a8c:	d2800021 	mov	x1, #0x1                   	// #1
    return (pte_t*)pte;
}
    fd8000001a90:	a8c17bfd 	ldp	x29, x30, [sp], #16
    fd8000001a94:	a9408c42 	ldp	x2, x3, [x2, #8]
    fd8000001a98:	f86a7863 	ldr	x3, [x3, x10, lsl #3]
    fd8000001a9c:	f86a7842 	ldr	x2, [x2, x10, lsl #3]
    fd8000001aa0:	9ac32021 	lsl	x1, x1, x3
    fd8000001aa4:	9ac22421 	lsr	x1, x1, x2
    pte &= ~(pt_size(pt, lvl) - 1);
    fd8000001aa8:	cb010fe1 	neg	x1, x1, lsl #3
    fd8000001aac:	8a000020 	and	x0, x1, x0
}
    fd8000001ab0:	d65f03c0 	ret
        return pt->root;
    fd8000001ab4:	f9400000 	ldr	x0, [x0]
}
    fd8000001ab8:	d65f03c0 	ret
    fd8000001abc:	d503201f 	nop

0000fd8000001ac0 <pte_page>:
    return (va >> pt->dscr->lvl_off[lvl]) & (pt_nentries(pt, lvl) - 1);
}

static inline bool pt_lvl_terminal(struct page_table* pt, size_t lvl)
{
    return pt->dscr->lvl_term[lvl];
    fd8000001ac0:	f9400403 	ldr	x3, [x0, #8]
    fd8000001ac4:	f9400c60 	ldr	x0, [x3, #24]
    fd8000001ac8:	38626800 	ldrb	w0, [x0, x2]

bool pte_page(struct page_table* pt, pte_t* pte, size_t lvl)
{
    if (!pt_lvl_terminal(pt, lvl)) {
    fd8000001acc:	36000120 	tbz	w0, #0, fd8000001af0 <pte_page+0x30>
        return false;
    }

    if (lvl != pt->dscr->lvls - 1) {
    fd8000001ad0:	f9400063 	ldr	x3, [x3]
        return (*pte & PTE_TYPE_MSK) == PTE_SUPERPAGE;
    fd8000001ad4:	f9400020 	ldr	x0, [x1]
    if (lvl != pt->dscr->lvls - 1) {
    fd8000001ad8:	d1000461 	sub	x1, x3, #0x1
    fd8000001adc:	eb02003f 	cmp	x1, x2
        return (*pte & PTE_TYPE_MSK) == PTE_SUPERPAGE;
    fd8000001ae0:	92400400 	and	x0, x0, #0x3
    if (lvl != pt->dscr->lvls - 1) {
    fd8000001ae4:	54000080 	b.eq	fd8000001af4 <pte_page+0x34>  // b.none
        return (*pte & PTE_TYPE_MSK) == PTE_SUPERPAGE;
    fd8000001ae8:	f100041f 	cmp	x0, #0x1
    fd8000001aec:	1a9f17e0 	cset	w0, eq	// eq = none
    }

    return (*pte & PTE_TYPE_MSK) == PTE_PAGE;
}
    fd8000001af0:	d65f03c0 	ret
    return (*pte & PTE_TYPE_MSK) == PTE_PAGE;
    fd8000001af4:	f1000c1f 	cmp	x0, #0x3
    fd8000001af8:	1a9f17e0 	cset	w0, eq	// eq = none
}
    fd8000001afc:	d65f03c0 	ret

0000fd8000001b00 <pte_table>:

bool pte_table(struct page_table* pt, pte_t* pte, size_t lvl)
{
    if (lvl == pt->dscr->lvls - 1) {
    fd8000001b00:	f9400400 	ldr	x0, [x0, #8]
    fd8000001b04:	f9400000 	ldr	x0, [x0]
    fd8000001b08:	d1000400 	sub	x0, x0, #0x1
    fd8000001b0c:	eb02001f 	cmp	x0, x2
    fd8000001b10:	540000c0 	b.eq	fd8000001b28 <pte_table+0x28>  // b.none
        return false;
    }

    return (*pte & PTE_TYPE_MSK) == PTE_TABLE;
    fd8000001b14:	f9400020 	ldr	x0, [x1]
    fd8000001b18:	92400400 	and	x0, x0, #0x3
    fd8000001b1c:	f1000c1f 	cmp	x0, #0x3
    fd8000001b20:	1a9f17e0 	cset	w0, eq	// eq = none
}
    fd8000001b24:	d65f03c0 	ret
        return false;
    fd8000001b28:	52800000 	mov	w0, #0x0                   	// #0
}
    fd8000001b2c:	d65f03c0 	ret

0000fd8000001b30 <as_arch_init>:
    return (1ULL << pt->dscr->lvl_wdt[lvl]) >> pt->dscr->lvl_off[lvl];
    fd8000001b30:	d2800202 	mov	x2, #0x10                  	// #16
    fd8000001b34:	d2800021 	mov	x1, #0x1                   	// #1
    fd8000001b38:	f2dfc002 	movk	x2, #0xfe00, lsl #32
    fd8000001b3c:	f9400443 	ldr	x3, [x2, #8]

    /*
     * If the address space is a copy of an existing hypervisor space it's not possible to use the
     * PT_CPU_REC index to navigate it, so we have to use the PT_VM_REC_IND.
     */
    if (as->type == AS_HYP_CPY || as->type == AS_VM) {
    fd8000001b40:	b9402002 	ldr	w2, [x0, #32]
    fd8000001b44:	a9409464 	ldp	x4, x5, [x3, #8]
    fd8000001b48:	51000442 	sub	w2, w2, #0x1
        index = PT_VM_REC_IND;
    fd8000001b4c:	7100045f 	cmp	w2, #0x1
    fd8000001b50:	f94000a3 	ldr	x3, [x5]
    fd8000001b54:	f9400082 	ldr	x2, [x4]
    fd8000001b58:	9ac32021 	lsl	x1, x1, x3
    fd8000001b5c:	9ac22421 	lsr	x1, x1, x2
    fd8000001b60:	9a819421 	cinc	x1, x1, hi	// hi = pmore
    } else {
        index = PT_CPU_REC_IND;
    }
    pt_set_recursive(&as->pt, index);
    fd8000001b64:	d1000821 	sub	x1, x1, #0x2
    fd8000001b68:	17ffff7a 	b	fd8000001950 <pt_set_recursive>
    fd8000001b6c:	d503201f 	nop

0000fd8000001b70 <mem_translate>:
SYSREG_GEN_ACCESSORS(cntvoff_el2);
SYSREG_GEN_ACCESSORS(sctlr_el1);
SYSREG_GEN_ACCESSORS(cntkctl_el1);
SYSREG_GEN_ACCESSORS(cntfrq_el0);
SYSREG_GEN_ACCESSORS(pmcr_el0);
SYSREG_GEN_ACCESSORS(par_el1);
    fd8000001b70:	d5387404 	mrs	x4, par_el1
     * TODO: are barriers needed in this operation?
     */

    par_saved = sysreg_par_el1_read();

    if (as->type == AS_HYP || as->type == AS_HYP_CPY) {
    fd8000001b74:	b9402000 	ldr	w0, [x0, #32]
    fd8000001b78:	721e781f 	tst	w0, #0xfffffffd
    fd8000001b7c:	540001c1 	b.ne	fd8000001bb4 <mem_translate+0x44>  // b.any
    asm volatile("dc civac, %0\n\t" ::"r"(cache_addr));
}

static inline void arm_at_s1e2w(vaddr_t vaddr)
{
    asm volatile("at s1e2w, %0" ::"r"(vaddr));
    fd8000001b80:	d50c7821 	at	s1e2w, x1
        arm_at_s1e2w(va);
    } else {
        arm_at_s12e1w(va);
    }

    ISB();
    fd8000001b84:	d5033fdf 	isb
SYSREG_GEN_ACCESSORS(par_el1);
    fd8000001b88:	d5387403 	mrs	x3, par_el1
    fd8000001b8c:	d5187404 	msr	par_el1, x4
    par = sysreg_par_el1_read();
    sysreg_par_el1_write(par_saved);
    if (par & PAR_F) {
        return false;
    fd8000001b90:	52800000 	mov	w0, #0x0                   	// #0
    if (par & PAR_F) {
    fd8000001b94:	370000e3 	tbnz	w3, #0, fd8000001bb0 <mem_translate+0x40>
    } else {
        if (pa != NULL) {
    fd8000001b98:	b40000a2 	cbz	x2, fd8000001bac <mem_translate+0x3c>
            *pa = (par & PAR_PA_MSK) | (va & (PAGE_SIZE - 1));
    fd8000001b9c:	92746463 	and	x3, x3, #0x3ffffff000
    fd8000001ba0:	92402c21 	and	x1, x1, #0xfff
    fd8000001ba4:	aa010063 	orr	x3, x3, x1
    fd8000001ba8:	f9000043 	str	x3, [x2]
        }
        return true;
    fd8000001bac:	52800020 	mov	w0, #0x1                   	// #1
    }
}
    fd8000001bb0:	d65f03c0 	ret
}

static inline void arm_at_s12e1w(vaddr_t vaddr)
{
    asm volatile("at s12e1w, %0" ::"r"(vaddr));
    fd8000001bb4:	d50c78a1 	at	s12e1w, x1
}
    fd8000001bb8:	17fffff3 	b	fd8000001b84 <mem_translate+0x14>
    fd8000001bbc:	00000000 	udf	#0

0000fd8000001bc0 <vcpu_arch_profile_init>:
#include <arch/sysregs.h>
#include <arch/fences.h>
#include <tlb.h>

void vcpu_arch_profile_init(struct vcpu* vcpu, struct vm* vm)
{
    fd8000001bc0:	a9bd7bfd 	stp	x29, x30, [sp, #-48]!
    paddr_t root_pt_pa;
    mem_translate(&cpu()->as, (vaddr_t)vm->as.pt.root, &root_pt_pa);
    fd8000001bc4:	d2800200 	mov	x0, #0x10                  	// #16
    fd8000001bc8:	f2dfc000 	movk	x0, #0xfe00, lsl #32
{
    fd8000001bcc:	910003fd 	mov	x29, sp
    fd8000001bd0:	f9000bf3 	str	x19, [sp, #16]
    fd8000001bd4:	aa0103f3 	mov	x19, x1
    mem_translate(&cpu()->as, (vaddr_t)vm->as.pt.root, &root_pt_pa);
    fd8000001bd8:	f9402c21 	ldr	x1, [x1, #88]
    fd8000001bdc:	9100a3e2 	add	x2, sp, #0x28
    fd8000001be0:	97ffffe4 	bl	fd8000001b70 <mem_translate>
    sysreg_vttbr_el2_write((((uint64_t)vm->id << VTTBR_VMID_OFF) & VTTBR_VMID_MSK) |
    fd8000001be4:	f9400261 	ldr	x1, [x19]
        (root_pt_pa & ~VTTBR_VMID_MSK));
    fd8000001be8:	f94017e0 	ldr	x0, [sp, #40]
    sysreg_vttbr_el2_write((((uint64_t)vm->id << VTTBR_VMID_OFF) & VTTBR_VMID_MSK) |
    fd8000001bec:	b3501c20 	bfi	x0, x1, #48, #8
SYSREG_GEN_ACCESSORS(vttbr_el2);
    fd8000001bf0:	d51c2100 	msr	vttbr_el2, x0

    ISB(); // make sure vmid is commited befor tlbi
    fd8000001bf4:	d5033fdf 	isb
    tlb_vm_inv_all(vm->id);
    fd8000001bf8:	f9400260 	ldr	x0, [x19]
    fd8000001bfc:	d53c2101 	mrs	x1, vttbr_el2
        }                                                                        \
        return count;                                                            \
    }

BIT_OPS_GEN(bit32, uint32_t, UINT32_C(1), BIT32_MASK);
BIT_OPS_GEN(bit64, uint64_t, UINT64_C(1), BIT64_MASK);
    fd8000001c00:	d370dc21 	ubfx	x1, x1, #48, #8
{
    uint64_t vttbr = 0;
    vttbr = sysreg_vttbr_el2_read();
    bool switch_vmid = bit64_extract(vttbr, VTTBR_VMID_OFF, VTTBR_VMID_LEN) != vmid;

    if (switch_vmid) {
    fd8000001c04:	eb01001f 	cmp	x0, x1
    fd8000001c08:	54000160 	b.eq	fd8000001c34 <vcpu_arch_profile_init+0x74>  // b.none
        sysreg_vttbr_el2_write(((uint64_t)vmid << VTTBR_VMID_OFF) & VTTBR_VMID_MSK);
    fd8000001c0c:	d3501c00 	ubfiz	x0, x0, #48, #8
    fd8000001c10:	d51c2100 	msr	vttbr_el2, x0
        DSB(ish);
    fd8000001c14:	d5033b9f 	dsb	ish
        ISB();
    fd8000001c18:	d5033fdf 	isb
    asm volatile("tlbi alle2is");
}

static inline void arm_tlbi_vmalls12e1is()
{
    asm volatile("tlbi vmalls12e1is");
    fd8000001c1c:	d50c83df 	tlbi	vmalls12e1is
    }

    arm_tlbi_vmalls12e1is();

    if (switch_vmid) {
        DSB(ish);
    fd8000001c20:	d5033b9f 	dsb	ish
SYSREG_GEN_ACCESSORS(vttbr_el2);
    fd8000001c24:	d51c2100 	msr	vttbr_el2, x0
}
    fd8000001c28:	f9400bf3 	ldr	x19, [sp, #16]
    fd8000001c2c:	a8c37bfd 	ldp	x29, x30, [sp], #48
    fd8000001c30:	d65f03c0 	ret
    asm volatile("tlbi vmalls12e1is");
    fd8000001c34:	d50c83df 	tlbi	vmalls12e1is
    fd8000001c38:	f9400bf3 	ldr	x19, [sp, #16]
    fd8000001c3c:	a8c37bfd 	ldp	x29, x30, [sp], #48
    fd8000001c40:	d65f03c0 	ret
	...

0000fd8000001c50 <vmm_arch_profile_init>:

#include <vmm.h>

void vmm_arch_profile_init()
{
    vmm_arch_init_tcr();
    fd8000001c50:	14000438 	b	fd8000002d30 <vmm_arch_init_tcr>
	...

0000fd8000001c60 <psci_wake_from_idle>:
    vcpu_run(cpu()->vcpu);
}

void psci_wake_from_idle()
{
    cpu_idle_wakeup();
    fd8000001c60:	140025c0 	b	fd800000b360 <cpu_idle_wakeup>
    fd8000001c64:	d503201f 	nop
    fd8000001c68:	d503201f 	nop
    fd8000001c6c:	d503201f 	nop

0000fd8000001c70 <psci_wake_from_powerdown>:
{
    fd8000001c70:	a9be7bfd 	stp	x29, x30, [sp, #-32]!
    fd8000001c74:	910003fd 	mov	x29, sp
    fd8000001c78:	f9000bf3 	str	x19, [sp, #16]
    if (cpu()->vcpu == NULL) {
    fd8000001c7c:	d2dfc013 	mov	x19, #0xfe0000000000        	// #279275953455104
    fd8000001c80:	f9402a60 	ldr	x0, [x19, #80]
    fd8000001c84:	b4000160 	cbz	x0, fd8000001cb0 <psci_wake_from_powerdown+0x40>
    vcpu_arch_reset(cpu()->vcpu, cpu()->vcpu->arch.psci_ctx.entrypoint);
    fd8000001c88:	f944b001 	ldr	x1, [x0, #2400]
    fd8000001c8c:	9400061d 	bl	fd8000003500 <vcpu_arch_reset>
    vcpu_writereg(cpu()->vcpu, 0, cpu()->vcpu->arch.psci_ctx.context_id);
    fd8000001c90:	f9402a60 	ldr	x0, [x19, #80]
    fd8000001c94:	d2800001 	mov	x1, #0x0                   	// #0
    fd8000001c98:	f944b402 	ldr	x2, [x0, #2408]
    fd8000001c9c:	97fffee5 	bl	fd8000001830 <vcpu_writereg>
    vcpu_run(cpu()->vcpu);
    fd8000001ca0:	f9402a60 	ldr	x0, [x19, #80]
}
    fd8000001ca4:	f9400bf3 	ldr	x19, [sp, #16]
    fd8000001ca8:	a8c27bfd 	ldp	x29, x30, [sp], #32
    vcpu_run(cpu()->vcpu);
    fd8000001cac:	14002a5d 	b	fd800000c620 <vcpu_run>
        ERROR("cpu woke up but theres no vcpu to run");
    fd8000001cb0:	90000000 	adrp	x0, fd8000001000 <_hyp_vector_table>
    fd8000001cb4:	f9466000 	ldr	x0, [x0, #3264]
    fd8000001cb8:	94002ab2 	bl	fd800000c780 <console_printk>
    fd8000001cbc:	14000000 	b	fd8000001cbc <psci_wake_from_powerdown+0x4c>
    fd8000001cc0:	00010088 	.word	0x00010088
    fd8000001cc4:	0000fd80 	.word	0x0000fd80
    fd8000001cc8:	d503201f 	nop
    fd8000001ccc:	d503201f 	nop

0000fd8000001cd0 <psci_wake>:
    [PSCI_WAKEUP_POWERDOWN] = psci_wake_from_powerdown,
    [PSCI_WAKEUP_IDLE] = psci_wake_from_idle,
};

void psci_wake(uint32_t handler_id)
{
    fd8000001cd0:	a9be7bfd 	stp	x29, x30, [sp, #-32]!
    fd8000001cd4:	910003fd 	mov	x29, sp
    fd8000001cd8:	f9000bf3 	str	x19, [sp, #16]
    fd8000001cdc:	2a0003f3 	mov	w19, w0
    gicc_restore_state(&cpu()->arch.profile.psci_off_state.gicc_state);
    fd8000001ce0:	d2801500 	mov	x0, #0xa8                  	// #168
    fd8000001ce4:	f2dfc000 	movk	x0, #0xfe00, lsl #32
    fd8000001ce8:	940019ea 	bl	fd8000008490 <gicc_restore_state>
    psci_restore_state();

    if (handler_id < PSCI_WAKEUP_NUM) {
    fd8000001cec:	71000a7f 	cmp	w19, #0x2
    fd8000001cf0:	54000108 	b.hi	fd8000001d10 <psci_wake+0x40>  // b.pmore
        psci_wake_handlers[handler_id]();
    fd8000001cf4:	90000000 	adrp	x0, fd8000001000 <_hyp_vector_table>
    fd8000001cf8:	f9469000 	ldr	x0, [x0, #3360]
    fd8000001cfc:	f8735800 	ldr	x0, [x0, w19, uxtw #3]
    } else {
        ERROR("unkown reason for cpu wake up");
    }
}
    fd8000001d00:	f9400bf3 	ldr	x19, [sp, #16]
        psci_wake_handlers[handler_id]();
    fd8000001d04:	aa0003f0 	mov	x16, x0
}
    fd8000001d08:	a8c27bfd 	ldp	x29, x30, [sp], #32
        psci_wake_handlers[handler_id]();
    fd8000001d0c:	d61f0200 	br	x16
        ERROR("unkown reason for cpu wake up");
    fd8000001d10:	90000000 	adrp	x0, fd8000001000 <_hyp_vector_table>
    fd8000001d14:	f9469400 	ldr	x0, [x0, #3368]
    fd8000001d18:	94002a9a 	bl	fd800000c780 <console_printk>
    fd8000001d1c:	14000000 	b	fd8000001d1c <psci_wake+0x4c>
    fd8000001d20:	00012128 	.word	0x00012128
    fd8000001d24:	0000fd80 	.word	0x0000fd80
    fd8000001d28:	000100c0 	.word	0x000100c0
    fd8000001d2c:	0000fd80 	.word	0x0000fd80

0000fd8000001d30 <psci_standby>:

int32_t psci_standby()
{
    fd8000001d30:	a9bf7bfd 	stp	x29, x30, [sp, #-16]!
    return psci_cpu_suspend(pwr_state_aux, psci_wakeup_addr, cntxt_paddr);
}

int32_t psci_cpu_suspend(uint32_t power_state, unsigned long entrypoint, unsigned long context_id)
{
    return smc_call(PSCI_CPU_SUSPEND, power_state, entrypoint, context_id, NULL);
    fd8000001d34:	d2800004 	mov	x4, #0x0                   	// #0
    fd8000001d38:	d2800003 	mov	x3, #0x0                   	// #0
{
    fd8000001d3c:	910003fd 	mov	x29, sp
    return smc_call(PSCI_CPU_SUSPEND, power_state, entrypoint, context_id, NULL);
    fd8000001d40:	d2800002 	mov	x2, #0x0                   	// #0
    fd8000001d44:	d2800001 	mov	x1, #0x0                   	// #0
    fd8000001d48:	d2800020 	mov	x0, #0x1                   	// #1
    fd8000001d4c:	f2b88000 	movk	x0, #0xc400, lsl #16
    fd8000001d50:	940003c8 	bl	fd8000002c70 <smc_call>
}
    fd8000001d54:	a8c17bfd 	ldp	x29, x30, [sp], #16
    fd8000001d58:	d65f03c0 	ret
    fd8000001d5c:	d503201f 	nop

0000fd8000001d60 <psci_power_down>:
{
    fd8000001d60:	a9bc7bfd 	stp	x29, x30, [sp, #-64]!
    fd8000001d64:	910003fd 	mov	x29, sp
    fd8000001d68:	a90153f3 	stp	x19, x20, [sp, #16]
    fd8000001d6c:	2a0003f4 	mov	w20, w0
    fd8000001d70:	a9025bf5 	stp	x21, x22, [sp, #32]
SYSREG_GEN_ACCESSORS(tcr_el2);
    fd8000001d74:	d53c2040 	mrs	x0, tcr_el2
    cpu()->arch.profile.psci_off_state.tcr_el2 = sysreg_tcr_el2_read();
    fd8000001d78:	d2dfc013 	mov	x19, #0xfe0000000000        	// #279275953455104
    fd8000001d7c:	f9002e60 	str	x0, [x19, #88]
SYSREG_GEN_ACCESSORS(ttbr0_el2);
    fd8000001d80:	d53c2000 	mrs	x0, ttbr0_el2
    cpu()->arch.profile.psci_off_state.ttbr0_el2 = sysreg_ttbr0_el2_read();
    fd8000001d84:	f9003260 	str	x0, [x19, #96]
SYSREG_GEN_ACCESSORS(mair_el2);
    fd8000001d88:	d53ca200 	mrs	x0, mair_el2
    cpu()->arch.profile.psci_off_state.mair_el2 = sysreg_mair_el2_read();
    fd8000001d8c:	f9003660 	str	x0, [x19, #104]
SYSREG_GEN_ACCESSORS(cptr_el2);
    fd8000001d90:	d53c1140 	mrs	x0, cptr_el2
    cpu()->arch.profile.psci_off_state.cptr_el2 = sysreg_cptr_el2_read();
    fd8000001d94:	f9003a60 	str	x0, [x19, #112]
SYSREG_GEN_ACCESSORS(hcr_el2);
    fd8000001d98:	d53c1100 	mrs	x0, hcr_el2
    cpu()->arch.profile.psci_off_state.hcr_el2 = sysreg_hcr_el2_read();
    fd8000001d9c:	f9003e60 	str	x0, [x19, #120]
SYSREG_GEN_ACCESSORS(vmpidr_el2);
    fd8000001da0:	d53c00a0 	mrs	x0, vmpidr_el2
    cpu()->arch.profile.psci_off_state.vmpidr_el2 = sysreg_vmpidr_el2_read();
    fd8000001da4:	f9004260 	str	x0, [x19, #128]
SYSREG_GEN_ACCESSORS(vtcr_el2);
    fd8000001da8:	d53c2140 	mrs	x0, vtcr_el2
    cpu()->arch.profile.psci_off_state.vtcr_el2 = sysreg_vtcr_el2_read();
    fd8000001dac:	f9004660 	str	x0, [x19, #136]
SYSREG_GEN_ACCESSORS(vttbr_el2);
    fd8000001db0:	d53c2101 	mrs	x1, vttbr_el2
    mem_translate(&cpu()->as, (vaddr_t)&root_l1_flat_pt,
    fd8000001db4:	90000000 	adrp	x0, fd8000001000 <_hyp_vector_table>
    cpu()->arch.profile.psci_off_state.vttbr_el2 = sysreg_vttbr_el2_read();
    fd8000001db8:	f9004a61 	str	x1, [x19, #144]
    mem_translate(&cpu()->as, (vaddr_t)&root_l1_flat_pt,
    fd8000001dbc:	91028276 	add	x22, x19, #0xa0
    fd8000001dc0:	91004275 	add	x21, x19, #0x10
    fd8000001dc4:	f9472001 	ldr	x1, [x0, #3648]
    fd8000001dc8:	aa1603e2 	mov	x2, x22
    fd8000001dcc:	aa1503e0 	mov	x0, x21
    cache_flush_range((vaddr_t)&cpu()->arch.profile.psci_off_state,
    fd8000001dd0:	91016273 	add	x19, x19, #0x58
    mem_translate(&cpu()->as, (vaddr_t)&root_l1_flat_pt,
    fd8000001dd4:	97ffff67 	bl	fd8000001b70 <mem_translate>
    cpu()->arch.profile.psci_off_state.wakeup_reason = wakeup_reason;
    fd8000001dd8:	f9002274 	str	x20, [x19, #64]
    cache_flush_range((vaddr_t)&cpu()->arch.profile.psci_off_state,
    fd8000001ddc:	d2805301 	mov	x1, #0x298                 	// #664
    fd8000001de0:	aa1303e0 	mov	x0, x19
    fd8000001de4:	940004e7 	bl	fd8000003180 <cache_flush_range>
    gicc_save_state(&cpu()->arch.profile.psci_off_state.gicc_state);
    fd8000001de8:	910022c0 	add	x0, x22, #0x8
    fd8000001dec:	94001949 	bl	fd8000008310 <gicc_save_state>
    mem_translate(&cpu()->as, (vaddr_t)&cpu()->arch.profile.psci_off_state, &cntxt_paddr);
    fd8000001df0:	aa1303e1 	mov	x1, x19
    fd8000001df4:	9100c3e2 	add	x2, sp, #0x30
    fd8000001df8:	aa1503e0 	mov	x0, x21
    fd8000001dfc:	97ffff5d 	bl	fd8000001b70 <mem_translate>
    mem_translate(&cpu()->as, (vaddr_t)&psci_boot_entry, &psci_wakeup_addr);
    fd8000001e00:	90000001 	adrp	x1, fd8000001000 <_hyp_vector_table>
    fd8000001e04:	9100e3e2 	add	x2, sp, #0x38
    fd8000001e08:	aa1503e0 	mov	x0, x21
    fd8000001e0c:	f9472421 	ldr	x1, [x1, #3656]
    fd8000001e10:	97ffff58 	bl	fd8000001b70 <mem_translate>
    return smc_call(PSCI_CPU_SUSPEND, power_state, entrypoint, context_id, NULL);
    fd8000001e14:	a9430be3 	ldp	x3, x2, [sp, #48]
    fd8000001e18:	d2800004 	mov	x4, #0x0                   	// #0
    fd8000001e1c:	d2800021 	mov	x1, #0x1                   	// #1
    fd8000001e20:	d2800020 	mov	x0, #0x1                   	// #1
    fd8000001e24:	f2b88000 	movk	x0, #0xc400, lsl #16
    fd8000001e28:	94000392 	bl	fd8000002c70 <smc_call>
}
    fd8000001e2c:	a94153f3 	ldp	x19, x20, [sp, #16]
    fd8000001e30:	a9425bf5 	ldp	x21, x22, [sp, #32]
    fd8000001e34:	a8c47bfd 	ldp	x29, x30, [sp], #64
    fd8000001e38:	d65f03c0 	ret
    fd8000001e3c:	d503201f 	nop
    fd8000001e40:	0001f000 	.word	0x0001f000
    fd8000001e44:	0000fd80 	.word	0x0000fd80
    fd8000001e48:	000003ec 	.word	0x000003ec
    fd8000001e4c:	0000fd80 	.word	0x0000fd80

0000fd8000001e50 <psci_cpu_suspend>:
{
    fd8000001e50:	a9bf7bfd 	stp	x29, x30, [sp, #-16]!
    fd8000001e54:	aa0103e4 	mov	x4, x1
    return smc_call(PSCI_CPU_SUSPEND, power_state, entrypoint, context_id, NULL);
    fd8000001e58:	aa0203e3 	mov	x3, x2
{
    fd8000001e5c:	910003fd 	mov	x29, sp
    return smc_call(PSCI_CPU_SUSPEND, power_state, entrypoint, context_id, NULL);
    fd8000001e60:	2a0003e1 	mov	w1, w0
    fd8000001e64:	aa0403e2 	mov	x2, x4
    fd8000001e68:	d2800004 	mov	x4, #0x0                   	// #0
    fd8000001e6c:	d2800020 	mov	x0, #0x1                   	// #1
    fd8000001e70:	f2b88000 	movk	x0, #0xc400, lsl #16
    fd8000001e74:	9400037f 	bl	fd8000002c70 <smc_call>
}
    fd8000001e78:	a8c17bfd 	ldp	x29, x30, [sp], #16
    fd8000001e7c:	d65f03c0 	ret

0000fd8000001e80 <psci_cpu_on>:

int32_t psci_cpu_on(unsigned long target_cpu, unsigned long entrypoint, unsigned long context_id)
{
    fd8000001e80:	a9bf7bfd 	stp	x29, x30, [sp, #-16]!
    fd8000001e84:	aa0103e4 	mov	x4, x1
    return smc_call(PSCI_CPU_ON, target_cpu, entrypoint, context_id, NULL);
    fd8000001e88:	aa0203e3 	mov	x3, x2
{
    fd8000001e8c:	910003fd 	mov	x29, sp
    return smc_call(PSCI_CPU_ON, target_cpu, entrypoint, context_id, NULL);
    fd8000001e90:	aa0003e1 	mov	x1, x0
    fd8000001e94:	aa0403e2 	mov	x2, x4
    fd8000001e98:	d2800004 	mov	x4, #0x0                   	// #0
    fd8000001e9c:	d2800060 	mov	x0, #0x3                   	// #3
    fd8000001ea0:	f2b88000 	movk	x0, #0xc400, lsl #16
    fd8000001ea4:	94000373 	bl	fd8000002c70 <smc_call>
}
    fd8000001ea8:	a8c17bfd 	ldp	x29, x30, [sp], #16
    fd8000001eac:	d65f03c0 	ret

0000fd8000001eb0 <smmu_sme_is_group>:
    map[bit / BITMAP_GRANULE_LEN] &= ~(ONE << (bit % BITMAP_GRANULE_LEN));
}

static inline unsigned bitmap_get(bitmap_t* map, size_t bit)
{
    return (map[bit / BITMAP_GRANULE_LEN] & (ONE << (bit % BITMAP_GRANULE_LEN))) ? 1U : 0U;
    fd8000001eb0:	90000001 	adrp	x1, fd8000001000 <_hyp_vector_table>
    fd8000001eb4:	f9476c23 	ldr	x3, [x1, #3800]
    fd8000001eb8:	d345fc02 	lsr	x2, x0, #5
    fd8000001ebc:	52800021 	mov	w1, #0x1                   	// #1
    fd8000001ec0:	1ac02020 	lsl	w0, w1, w0
    fd8000001ec4:	8b020861 	add	x1, x3, x2, lsl #2
    fd8000001ec8:	b9403821 	ldr	w1, [x1, #56]
    fd8000001ecc:	6a01001f 	tst	w0, w1
 * Accessors inline functions.
 */
inline bool smmu_sme_is_group(size_t sme)
{
    return bitmap_get(smmu.grp_bitmap, sme);
}
    fd8000001ed0:	1a9f07e0 	cset	w0, ne	// ne = any
    fd8000001ed4:	d65f03c0 	ret
    fd8000001ed8:	00013000 	.word	0x00013000
    fd8000001edc:	0000fd80 	.word	0x0000fd80

0000fd8000001ee0 <smmu_sme_get_ctx>:

inline size_t smmu_sme_get_ctx(size_t sme)
{
    return S2CR_CBNDX(smmu.hw.glbl_rs0->S2CR[sme]);
    fd8000001ee0:	90000001 	adrp	x1, fd8000001000 <_hyp_vector_table>
    fd8000001ee4:	f9478021 	ldr	x1, [x1, #3840]
    fd8000001ee8:	f9400021 	ldr	x1, [x1]
    fd8000001eec:	8b000820 	add	x0, x1, x0, lsl #2
    fd8000001ef0:	b94c0000 	ldr	w0, [x0, #3072]
}
    fd8000001ef4:	92401c00 	and	x0, x0, #0xff
    fd8000001ef8:	d65f03c0 	ret
    fd8000001efc:	d503201f 	nop
    fd8000001f00:	00013000 	.word	0x00013000
    fd8000001f04:	0000fd80 	.word	0x0000fd80
    fd8000001f08:	d503201f 	nop
    fd8000001f0c:	d503201f 	nop

0000fd8000001f10 <smmu_sme_get_id>:

inline streamid_t smmu_sme_get_id(size_t sme)
{
    return SMMU_SMR_ID(smmu.hw.glbl_rs0->SMR[sme]);
    fd8000001f10:	90000001 	adrp	x1, fd8000001000 <_hyp_vector_table>
    fd8000001f14:	f9479821 	ldr	x1, [x1, #3888]
    fd8000001f18:	f9400021 	ldr	x1, [x1]
    fd8000001f1c:	8b000820 	add	x0, x1, x0, lsl #2
    fd8000001f20:	b9480000 	ldr	w0, [x0, #2048]
}
    fd8000001f24:	12003800 	and	w0, w0, #0x7fff
    fd8000001f28:	d65f03c0 	ret
    fd8000001f2c:	d503201f 	nop
    fd8000001f30:	00013000 	.word	0x00013000
    fd8000001f34:	0000fd80 	.word	0x0000fd80
    fd8000001f38:	d503201f 	nop
    fd8000001f3c:	d503201f 	nop

0000fd8000001f40 <smmu_sme_get_mask>:

inline streamid_t smmu_sme_get_mask(size_t sme)
{
    return SMMU_SMR_MASK(smmu.hw.glbl_rs0->SMR[sme]);
    fd8000001f40:	90000001 	adrp	x1, fd8000001000 <_hyp_vector_table>
    fd8000001f44:	f947b021 	ldr	x1, [x1, #3936]
    fd8000001f48:	f9400021 	ldr	x1, [x1]
    fd8000001f4c:	8b000820 	add	x0, x1, x0, lsl #2
    fd8000001f50:	b9480000 	ldr	w0, [x0, #2048]
}
    fd8000001f54:	d3507800 	ubfx	x0, x0, #16, #15
    fd8000001f58:	d65f03c0 	ret
    fd8000001f5c:	d503201f 	nop
    fd8000001f60:	00013000 	.word	0x00013000
    fd8000001f64:	0000fd80 	.word	0x0000fd80
    fd8000001f68:	d503201f 	nop
    fd8000001f6c:	d503201f 	nop

0000fd8000001f70 <smmu_init>:
        ERROR("smmuv2 does not support the full available ipa range");
    }
}

void smmu_init()
{
    fd8000001f70:	a9bc7bfd 	stp	x29, x30, [sp, #-64]!
    /*
     * Alloc pages for global address space.
     *
     * Map the first 4k so we can read all the info we need to further allocate smmu registers.
     */
    vaddr_t smmu_glbl_rs0 = mem_alloc_map_dev(&cpu()->as, SEC_HYP_GLOBAL, INVALID_VA,
    fd8000001f74:	d2800024 	mov	x4, #0x1                   	// #1
    fd8000001f78:	92800002 	mov	x2, #0xffffffffffffffff    	// #-1
{
    fd8000001f7c:	910003fd 	mov	x29, sp
    fd8000001f80:	a90363f7 	stp	x23, x24, [sp, #48]
    vaddr_t smmu_glbl_rs0 = mem_alloc_map_dev(&cpu()->as, SEC_HYP_GLOBAL, INVALID_VA,
    fd8000001f84:	b0000000 	adrp	x0, fd8000002000 <smmu_init+0x90>
    fd8000001f88:	f9413018 	ldr	x24, [x0, #608]
    fd8000001f8c:	d2800200 	mov	x0, #0x10                  	// #16
    fd8000001f90:	52800001 	mov	w1, #0x0                   	// #0
    fd8000001f94:	f2dfc000 	movk	x0, #0xfe00, lsl #32
{
    fd8000001f98:	a90153f3 	stp	x19, x20, [sp, #16]
        platform.arch.smmu.base, NUM_PAGES(sizeof(struct smmu_glbl_rs0_hw)));

    smmu.hw.glbl_rs0 = (struct smmu_glbl_rs0_hw*)smmu_glbl_rs0;

    size_t pg_size = smmu.hw.glbl_rs0->IDR1 & SMMUV2_IDR1_PAGESIZE_BIT ? 0x10000 : 0x1000;
    fd8000001f9c:	d2820013 	mov	x19, #0x1000                	// #4096
    vaddr_t smmu_glbl_rs0 = mem_alloc_map_dev(&cpu()->as, SEC_HYP_GLOBAL, INVALID_VA,
    fd8000001fa0:	f9412f03 	ldr	x3, [x24, #600]
{
    fd8000001fa4:	a9025bf5 	stp	x21, x22, [sp, #32]
    vaddr_t smmu_glbl_rs0 = mem_alloc_map_dev(&cpu()->as, SEC_HYP_GLOBAL, INVALID_VA,
    fd8000001fa8:	940035be 	bl	fd800000f6a0 <mem_alloc_map_dev>
    fd8000001fac:	aa0003e5 	mov	x5, x0
    smmu.hw.glbl_rs0 = (struct smmu_glbl_rs0_hw*)smmu_glbl_rs0;
    fd8000001fb0:	b0000000 	adrp	x0, fd8000002000 <smmu_init+0x90>
    fd8000001fb4:	f9413415 	ldr	x21, [x0, #616]
    size_t pg_size = smmu.hw.glbl_rs0->IDR1 & SMMUV2_IDR1_PAGESIZE_BIT ? 0x10000 : 0x1000;
    fd8000001fb8:	d2a00020 	mov	x0, #0x10000               	// #65536
    fd8000001fbc:	b94024a1 	ldr	w1, [x5, #36]
                                   SMMUV2_IDR1_NUMPAGEDXB_LEN) +
                          1);
    size_t ctx_bank_num =
        bit32_extract(smmu.hw.glbl_rs0->IDR1, SMMUV2_IDR1_NUMCB_OFF, SMMUV2_IDR1_NUMCB_LEN);

    vaddr_t smmu_glbl_rs1 = mem_alloc_map_dev(&cpu()->as, SEC_HYP_GLOBAL, INVALID_VA,
    fd8000001fc0:	d2800024 	mov	x4, #0x1                   	// #1
    size_t num_page = 1ULL << (bit32_extract(smmu.hw.glbl_rs0->IDR1, SMMUV2_IDR1_NUMPAGEDXB_OFF,
    fd8000001fc4:	b94024b4 	ldr	w20, [x5, #36]
    vaddr_t smmu_glbl_rs1 = mem_alloc_map_dev(&cpu()->as, SEC_HYP_GLOBAL, INVALID_VA,
    fd8000001fc8:	92800002 	mov	x2, #0xffffffffffffffff    	// #-1
        bit32_extract(smmu.hw.glbl_rs0->IDR1, SMMUV2_IDR1_NUMCB_OFF, SMMUV2_IDR1_NUMCB_LEN);
    fd8000001fcc:	b94024b6 	ldr	w22, [x5, #36]
    size_t pg_size = smmu.hw.glbl_rs0->IDR1 & SMMUV2_IDR1_PAGESIZE_BIT ? 0x10000 : 0x1000;
    fd8000001fd0:	7100003f 	cmp	w1, #0x0
    vaddr_t smmu_glbl_rs1 = mem_alloc_map_dev(&cpu()->as, SEC_HYP_GLOBAL, INVALID_VA,
    fd8000001fd4:	f9412f03 	ldr	x3, [x24, #600]
    size_t pg_size = smmu.hw.glbl_rs0->IDR1 & SMMUV2_IDR1_PAGESIZE_BIT ? 0x10000 : 0x1000;
    fd8000001fd8:	9a80a273 	csel	x19, x19, x0, ge	// ge = tcont
BIT_OPS_GEN(bit32, uint32_t, UINT32_C(1), BIT32_MASK);
    fd8000001fdc:	12001ed7 	and	w23, w22, #0xff
    size_t ctx_bank_num =
    fd8000001fe0:	92401ed6 	and	x22, x22, #0xff
    vaddr_t smmu_glbl_rs1 = mem_alloc_map_dev(&cpu()->as, SEC_HYP_GLOBAL, INVALID_VA,
    fd8000001fe4:	d2800200 	mov	x0, #0x10                  	// #16
    fd8000001fe8:	8b030263 	add	x3, x19, x3
    fd8000001fec:	52800001 	mov	w1, #0x0                   	// #0
    fd8000001ff0:	f2dfc000 	movk	x0, #0xfe00, lsl #32
    smmu.hw.glbl_rs0 = (struct smmu_glbl_rs0_hw*)smmu_glbl_rs0;
    fd8000001ff4:	f90002a5 	str	x5, [x21]
    vaddr_t smmu_glbl_rs1 = mem_alloc_map_dev(&cpu()->as, SEC_HYP_GLOBAL, INVALID_VA,
    fd8000001ff8:	940035aa 	bl	fd800000f6a0 <mem_alloc_map_dev>
        platform.arch.smmu.base + pg_size, NUM_PAGES(sizeof(struct smmu_glbl_rs1_hw)));

    vaddr_t smmu_cntxt = mem_alloc_map_dev(&cpu()->as, SEC_HYP_GLOBAL, INVALID_VA,
    fd8000001ffc:	f9412f03 	ldr	x3, [x24, #600]
        platform.arch.smmu.base + (num_page * pg_size), NUM_PAGES(pg_size * ctx_bank_num));
    fd8000002000:	9b167e64 	mul	x4, x19, x22
    fd8000002004:	d35c7a81 	ubfx	x1, x20, #28, #3
    vaddr_t smmu_glbl_rs1 = mem_alloc_map_dev(&cpu()->as, SEC_HYP_GLOBAL, INVALID_VA,
    fd8000002008:	aa0003e2 	mov	x2, x0
                                   SMMUV2_IDR1_NUMPAGEDXB_LEN) +
    fd800000200c:	11000421 	add	w1, w1, #0x1
    vaddr_t smmu_cntxt = mem_alloc_map_dev(&cpu()->as, SEC_HYP_GLOBAL, INVALID_VA,
    fd8000002010:	d2800200 	mov	x0, #0x10                  	// #16
    vaddr_t smmu_glbl_rs1 = mem_alloc_map_dev(&cpu()->as, SEC_HYP_GLOBAL, INVALID_VA,
    fd8000002014:	aa0203f4 	mov	x20, x2
    vaddr_t smmu_cntxt = mem_alloc_map_dev(&cpu()->as, SEC_HYP_GLOBAL, INVALID_VA,
    fd8000002018:	d34cfc84 	lsr	x4, x4, #12
        platform.arch.smmu.base + (num_page * pg_size), NUM_PAGES(pg_size * ctx_bank_num));
    fd800000201c:	9ac12273 	lsl	x19, x19, x1
    vaddr_t smmu_cntxt = mem_alloc_map_dev(&cpu()->as, SEC_HYP_GLOBAL, INVALID_VA,
    fd8000002020:	92800002 	mov	x2, #0xffffffffffffffff    	// #-1
    fd8000002024:	52800001 	mov	w1, #0x0                   	// #0
    fd8000002028:	8b030263 	add	x3, x19, x3
    fd800000202c:	f2dfc000 	movk	x0, #0xfe00, lsl #32
    fd8000002030:	9400359c 	bl	fd800000f6a0 <mem_alloc_map_dev>
        bit32_extract(smmu.hw.glbl_rs0->IDR7, SMMUV2_IDR7_MAJOR_OFF, SMMUV2_IDR7_MAJOR_LEN);
    fd8000002034:	f94002a2 	ldr	x2, [x21]

    smmu.hw.glbl_rs1 = (struct smmu_glbl_rs1_hw*)smmu_glbl_rs1;
    smmu.hw.cntxt = (struct smmu_cntxt_hw*)smmu_cntxt;
    fd8000002038:	a90082b4 	stp	x20, x0, [x21, #8]
        bit32_extract(smmu.hw.glbl_rs0->IDR7, SMMUV2_IDR7_MAJOR_OFF, SMMUV2_IDR7_MAJOR_LEN);
    fd800000203c:	b9403c41 	ldr	w1, [x2, #60]
    fd8000002040:	d3441c21 	ubfx	x1, x1, #4, #4
    if (version != 2) {
    fd8000002044:	7100083f 	cmp	w1, #0x2
    fd8000002048:	54000be1 	b.ne	fd80000021c4 <smmu_init+0x254>  // b.any
    if (!(smmu.hw.glbl_rs0->IDR0 & SMMUV2_IDR0_S2TS_BIT)) {
    fd800000204c:	b9402040 	ldr	w0, [x2, #32]
    fd8000002050:	36f00c20 	tbz	w0, #30, fd80000021d4 <smmu_init+0x264>
    if (!(smmu.hw.glbl_rs0->IDR0 & SMMUV2_IDR0_SMS_BIT)) {
    fd8000002054:	b9402040 	ldr	w0, [x2, #32]
    fd8000002058:	36d80d80 	tbz	w0, #27, fd8000002208 <smmu_init+0x298>
    if (!(smmu.hw.glbl_rs0->IDR0 & SMMUV2_IDR0_CTTW_BIT)) {
    fd800000205c:	b9402040 	ldr	w0, [x2, #32]
    fd8000002060:	36700ca0 	tbz	w0, #14, fd80000021f4 <smmu_init+0x284>
    if (!(smmu.hw.glbl_rs0->IDR0 & SMMUV2_IDR0_BTM_BIT)) {
    fd8000002064:	b9402040 	ldr	w0, [x2, #32]
    fd8000002068:	36680be0 	tbz	w0, #13, fd80000021e4 <smmu_init+0x274>
    if (!(smmu.hw.glbl_rs0->IDR2 & SMMUV2_IDR2_PTFSv8_4kB_BIT)) {
    fd800000206c:	b9402840 	ldr	w0, [x2, #40]
    fd8000002070:	36600d40 	tbz	w0, #12, fd8000002218 <smmu_init+0x2a8>
    if (pasize < parange) {
    fd8000002074:	90000000 	adrp	x0, fd8000002000 <smmu_init+0x90>
    fd8000002078:	f9415001 	ldr	x1, [x0, #672]
    size_t pasize = bit32_extract(smmu.hw.glbl_rs0->IDR2, SMMUV2_IDR2_OAS_OFF, SMMUV2_IDR2_OAS_LEN);
    fd800000207c:	b9402840 	ldr	w0, [x2, #40]
        bit32_extract(smmu.hw.glbl_rs0->IDR2, SMMUV2_IDR2_IAS_OFF, SMMUV2_IDR2_IAS_LEN);
    fd8000002080:	b9402843 	ldr	w3, [x2, #40]
    if (pasize < parange) {
    fd8000002084:	f9400021 	ldr	x1, [x1]
    size_t pasize = bit32_extract(smmu.hw.glbl_rs0->IDR2, SMMUV2_IDR2_OAS_OFF, SMMUV2_IDR2_OAS_LEN);
    fd8000002088:	d3441c00 	ubfx	x0, x0, #4, #4
    if (pasize < parange) {
    fd800000208c:	eb01001f 	cmp	x0, x1
    fd8000002090:	54000d43 	b.cc	fd8000002238 <smmu_init+0x2c8>  // b.lo, b.ul, b.last
    size_t ipasize =
    fd8000002094:	92400c63 	and	x3, x3, #0xf
    } else if (ipasize < parange) {
    fd8000002098:	eb01007f 	cmp	x3, x1
    fd800000209c:	54000c63 	b.cc	fd8000002228 <smmu_init+0x2b8>  // b.lo, b.ul, b.last
    /* Everything is mapped. Initialize book-keeping data. */

    smmu_check_features();

    smmu.ctx_lock = SPINLOCK_INITVAL;
    smmu.ctx_num = ctx_bank_num;
    fd80000020a0:	a904dabf 	stp	xzr, x22, [x21, #72]
    map[bit / BITMAP_GRANULE_LEN] &= ~(ONE << (bit % BITMAP_GRANULE_LEN));
    fd80000020a4:	910162a4 	add	x4, x21, #0x58

void bitmap_set_consecutive(bitmap_t* map, size_t start, size_t n);

static inline void bitmap_clear_consecutive(bitmap_t* map, size_t start, size_t n)
{
    for (size_t i = 0; i < n; i++) {
    fd80000020a8:	d2800000 	mov	x0, #0x0                   	// #0
    map[bit / BITMAP_GRANULE_LEN] &= ~(ONE << (bit % BITMAP_GRANULE_LEN));
    fd80000020ac:	52800026 	mov	w6, #0x1                   	// #1
    for (size_t i = 0; i < n; i++) {
    fd80000020b0:	34000137 	cbz	w23, fd80000020d4 <smmu_init+0x164>
    map[bit / BITMAP_GRANULE_LEN] &= ~(ONE << (bit % BITMAP_GRANULE_LEN));
    fd80000020b4:	d345fc03 	lsr	x3, x0, #5
    fd80000020b8:	1ac020c1 	lsl	w1, w6, w0
    for (size_t i = 0; i < n; i++) {
    fd80000020bc:	91000400 	add	x0, x0, #0x1
    fd80000020c0:	eb0002df 	cmp	x22, x0
    map[bit / BITMAP_GRANULE_LEN] &= ~(ONE << (bit % BITMAP_GRANULE_LEN));
    fd80000020c4:	b8637885 	ldr	w5, [x4, x3, lsl #2]
    fd80000020c8:	0a2100a1 	bic	w1, w5, w1
    fd80000020cc:	b8237881 	str	w1, [x4, x3, lsl #2]
    for (size_t i = 0; i < n; i++) {
    fd80000020d0:	54ffff21 	b.ne	fd80000020b4 <smmu_init+0x144>  // b.any
    bitmap_clear_consecutive(smmu.ctxbank_bitmap, 0, smmu.ctx_num);

    smmu.sme_lock = SPINLOCK_INITVAL;
    smmu.sme_num = smmu.hw.glbl_rs0->IDR0 & SMMUV2_IDR0_MASK;
    fd80000020d4:	b9402041 	ldr	w1, [x2, #32]
    map[bit / BITMAP_GRANULE_LEN] &= ~(ONE << (bit % BITMAP_GRANULE_LEN));
    fd80000020d8:	9100a2a5 	add	x5, x21, #0x28
    for (size_t i = 0; i < n; i++) {
    fd80000020dc:	d2800000 	mov	x0, #0x0                   	// #0
    map[bit / BITMAP_GRANULE_LEN] &= ~(ONE << (bit % BITMAP_GRANULE_LEN));
    fd80000020e0:	52800028 	mov	w8, #0x1                   	// #1
    fd80000020e4:	92401c27 	and	x7, x1, #0xff
    fd80000020e8:	a9019ebf 	stp	xzr, x7, [x21, #24]
    for (size_t i = 0; i < n; i++) {
    fd80000020ec:	72001c3f 	tst	w1, #0xff
    fd80000020f0:	54000ac0 	b.eq	fd8000002248 <smmu_init+0x2d8>  // b.none
    map[bit / BITMAP_GRANULE_LEN] &= ~(ONE << (bit % BITMAP_GRANULE_LEN));
    fd80000020f4:	d345fc04 	lsr	x4, x0, #5
    fd80000020f8:	1ac02101 	lsl	w1, w8, w0
    fd80000020fc:	aa0003e3 	mov	x3, x0
    for (size_t i = 0; i < n; i++) {
    fd8000002100:	91000400 	add	x0, x0, #0x1
    fd8000002104:	eb0000ff 	cmp	x7, x0
    map[bit / BITMAP_GRANULE_LEN] &= ~(ONE << (bit % BITMAP_GRANULE_LEN));
    fd8000002108:	b86478a6 	ldr	w6, [x5, x4, lsl #2]
    fd800000210c:	0a2100c1 	bic	w1, w6, w1
    fd8000002110:	b82478a1 	str	w1, [x5, x4, lsl #2]
    for (size_t i = 0; i < n; i++) {
    fd8000002114:	54ffff01 	b.ne	fd80000020f4 <smmu_init+0x184>  // b.any
    map[bit / BITMAP_GRANULE_LEN] &= ~(ONE << (bit % BITMAP_GRANULE_LEN));
    fd8000002118:	9100e2a6 	add	x6, x21, #0x38
    for (size_t i = 0; i < n; i++) {
    fd800000211c:	d2800001 	mov	x1, #0x0                   	// #0
    map[bit / BITMAP_GRANULE_LEN] &= ~(ONE << (bit % BITMAP_GRANULE_LEN));
    fd8000002120:	52800027 	mov	w7, #0x1                   	// #1
    fd8000002124:	d345fc25 	lsr	x5, x1, #5
    fd8000002128:	1ac120e0 	lsl	w0, w7, w1
    for (size_t i = 0; i < n; i++) {
    fd800000212c:	eb03003f 	cmp	x1, x3
    map[bit / BITMAP_GRANULE_LEN] &= ~(ONE << (bit % BITMAP_GRANULE_LEN));
    fd8000002130:	91000421 	add	x1, x1, #0x1
    fd8000002134:	b86578c4 	ldr	w4, [x6, x5, lsl #2]
    fd8000002138:	0a200080 	bic	w0, w4, w0
    fd800000213c:	b82578c0 	str	w0, [x6, x5, lsl #2]
    for (size_t i = 0; i < n; i++) {
    fd8000002140:	54ffff21 	b.ne	fd8000002124 <smmu_init+0x1b4>  // b.any
    bitmap_clear_consecutive(smmu.sme_bitmap, 0, smmu.sme_num);
    bitmap_clear_consecutive(smmu.grp_bitmap, 0, smmu.sme_num);

    /* Clear random reset state. */
    smmu.hw.glbl_rs0->GFSR = smmu.hw.glbl_rs0->GFSR;
    fd8000002144:	b9404841 	ldr	w1, [x2, #72]
    smmu.hw.glbl_rs0->NSGFSR = smmu.hw.glbl_rs0->NSGFSR;

    for (size_t i = 0; i < smmu.sme_num; i++) {
    fd8000002148:	d2800000 	mov	x0, #0x0                   	// #0
    smmu.hw.glbl_rs0->GFSR = smmu.hw.glbl_rs0->GFSR;
    fd800000214c:	b9004841 	str	w1, [x2, #72]
    smmu.hw.glbl_rs0->NSGFSR = smmu.hw.glbl_rs0->NSGFSR;
    fd8000002150:	b9444841 	ldr	w1, [x2, #1096]
    fd8000002154:	b9044841 	str	w1, [x2, #1096]
        smmu.hw.glbl_rs0->SMR[i] = 0;
    fd8000002158:	8b000841 	add	x1, x2, x0, lsl #2
    for (size_t i = 0; i < smmu.sme_num; i++) {
    fd800000215c:	eb03001f 	cmp	x0, x3
        smmu.hw.glbl_rs0->SMR[i] = 0;
    fd8000002160:	91000400 	add	x0, x0, #0x1
    fd8000002164:	b908003f 	str	wzr, [x1, #2048]
    for (size_t i = 0; i < smmu.sme_num; i++) {
    fd8000002168:	54ffff81 	b.ne	fd8000002158 <smmu_init+0x1e8>  // b.any
    }

    for (size_t i = 0; i < smmu.ctx_num; i++) {
    fd800000216c:	34000157 	cbz	w23, fd8000002194 <smmu_init+0x224>
        smmu.hw.cntxt[i].SCTLR = 0;
    fd8000002170:	f9400aa0 	ldr	x0, [x21, #16]
    fd8000002174:	52820001 	mov	w1, #0x1000                	// #4096
        smmu.hw.cntxt[i].FSR = -1;
    fd8000002178:	12800003 	mov	w3, #0xffffffff            	// #-1
    fd800000217c:	9ba102e1 	umaddl	x1, w23, w1, x0
        smmu.hw.cntxt[i].SCTLR = 0;
    fd8000002180:	b900001f 	str	wzr, [x0]
        smmu.hw.cntxt[i].FSR = -1;
    fd8000002184:	b9005803 	str	w3, [x0, #88]
    for (size_t i = 0; i < smmu.ctx_num; i++) {
    fd8000002188:	91400400 	add	x0, x0, #0x1, lsl #12
    fd800000218c:	eb00003f 	cmp	x1, x0
    fd8000002190:	54ffff81 	b.ne	fd8000002180 <smmu_init+0x210>  // b.any
    }

    /* Enable IOMMU. */
    uint32_t cr0 = smmu.hw.glbl_rs0->CR0;
    fd8000002194:	b9400040 	ldr	w0, [x2]
    cr0 = SMMUV2_CR0_CLEAR(cr0);
    cr0 |= SMMUV2_CR0_USFCFG | SMMUV2_CR0_SMCFCFG;
    fd8000002198:	52808001 	mov	w1, #0x400                 	// #1024
    fd800000219c:	72a00401 	movk	w1, #0x20, lsl #16
    cr0 = SMMUV2_CR0_CLEAR(cr0);
    fd80000021a0:	12155000 	and	w0, w0, #0xfffff800
    fd80000021a4:	12023400 	and	w0, w0, #0xc0000fff
    cr0 &= ~SMMUV2_CR0_CLIENTPD;
    smmu.hw.glbl_rs0->CR0 = cr0;
}
    fd80000021a8:	a94153f3 	ldp	x19, x20, [sp, #16]
    cr0 |= SMMUV2_CR0_USFCFG | SMMUV2_CR0_SMCFCFG;
    fd80000021ac:	2a010000 	orr	w0, w0, w1
}
    fd80000021b0:	a9425bf5 	ldp	x21, x22, [sp, #32]
    fd80000021b4:	a94363f7 	ldp	x23, x24, [sp, #48]
    smmu.hw.glbl_rs0->CR0 = cr0;
    fd80000021b8:	b9000040 	str	w0, [x2]
}
    fd80000021bc:	a8c47bfd 	ldp	x29, x30, [sp], #64
    fd80000021c0:	d65f03c0 	ret
        ERROR("smmu unsupported version: %d", version);
    fd80000021c4:	90000000 	adrp	x0, fd8000002000 <smmu_init+0x90>
    fd80000021c8:	f9413800 	ldr	x0, [x0, #624]
    fd80000021cc:	9400296d 	bl	fd800000c780 <console_printk>
    fd80000021d0:	14000000 	b	fd80000021d0 <smmu_init+0x260>
        ERROR("smmuv2 does not support 2nd stage translation");
    fd80000021d4:	90000000 	adrp	x0, fd8000002000 <smmu_init+0x90>
    fd80000021d8:	f9413c00 	ldr	x0, [x0, #632]
    fd80000021dc:	94002969 	bl	fd800000c780 <console_printk>
    fd80000021e0:	14000000 	b	fd80000021e0 <smmu_init+0x270>
        ERROR("smmuv2 does not support tlb maintenance broadcast");
    fd80000021e4:	90000000 	adrp	x0, fd8000002000 <smmu_init+0x90>
    fd80000021e8:	f9414800 	ldr	x0, [x0, #656]
    fd80000021ec:	94002965 	bl	fd800000c780 <console_printk>
    fd80000021f0:	14000000 	b	fd80000021f0 <smmu_init+0x280>
        WARNING("smmuv2 does not support coherent page table walks");
    fd80000021f4:	90000000 	adrp	x0, fd8000002000 <smmu_init+0x90>
    fd80000021f8:	f9414400 	ldr	x0, [x0, #648]
    fd80000021fc:	94002961 	bl	fd800000c780 <console_printk>
    if (!(smmu.hw.glbl_rs0->IDR0 & SMMUV2_IDR0_BTM_BIT)) {
    fd8000002200:	f94002a2 	ldr	x2, [x21]
    fd8000002204:	17ffff98 	b	fd8000002064 <smmu_init+0xf4>
        ERROR("smmuv2 does not support stream match");
    fd8000002208:	90000000 	adrp	x0, fd8000002000 <smmu_init+0x90>
    fd800000220c:	f9414000 	ldr	x0, [x0, #640]
    fd8000002210:	9400295c 	bl	fd800000c780 <console_printk>
    fd8000002214:	14000000 	b	fd8000002214 <smmu_init+0x2a4>
        ERROR("smmuv2 does not support 4kb page granule");
    fd8000002218:	90000000 	adrp	x0, fd8000002000 <smmu_init+0x90>
    fd800000221c:	f9414c00 	ldr	x0, [x0, #664]
    fd8000002220:	94002958 	bl	fd800000c780 <console_printk>
    fd8000002224:	14000000 	b	fd8000002224 <smmu_init+0x2b4>
        ERROR("smmuv2 does not support the full available ipa range");
    fd8000002228:	90000000 	adrp	x0, fd8000002000 <smmu_init+0x90>
    fd800000222c:	f9415800 	ldr	x0, [x0, #688]
    fd8000002230:	94002954 	bl	fd800000c780 <console_printk>
    fd8000002234:	14000000 	b	fd8000002234 <smmu_init+0x2c4>
        ERROR("smmuv2 does not support the full available pa range");
    fd8000002238:	90000000 	adrp	x0, fd8000002000 <smmu_init+0x90>
    fd800000223c:	f9415400 	ldr	x0, [x0, #680]
    fd8000002240:	94002950 	bl	fd800000c780 <console_printk>
    fd8000002244:	14000000 	b	fd8000002244 <smmu_init+0x2d4>
    smmu.hw.glbl_rs0->GFSR = smmu.hw.glbl_rs0->GFSR;
    fd8000002248:	b9404840 	ldr	w0, [x2, #72]
    fd800000224c:	b9004840 	str	w0, [x2, #72]
    smmu.hw.glbl_rs0->NSGFSR = smmu.hw.glbl_rs0->NSGFSR;
    fd8000002250:	b9444840 	ldr	w0, [x2, #1096]
    fd8000002254:	b9044840 	str	w0, [x2, #1096]
    for (size_t i = 0; i < smmu.sme_num; i++) {
    fd8000002258:	17ffffc5 	b	fd800000216c <smmu_init+0x1fc>
    fd800000225c:	d503201f 	nop
    fd8000002260:	000129b0 	.word	0x000129b0
    fd8000002264:	0000fd80 	.word	0x0000fd80
    fd8000002268:	00013000 	.word	0x00013000
    fd800000226c:	0000fd80 	.word	0x0000fd80
    fd8000002270:	000100f0 	.word	0x000100f0
    fd8000002274:	0000fd80 	.word	0x0000fd80
    fd8000002278:	00010120 	.word	0x00010120
    fd800000227c:	0000fd80 	.word	0x0000fd80
    fd8000002280:	00010160 	.word	0x00010160
    fd8000002284:	0000fd80 	.word	0x0000fd80
    fd8000002288:	00010198 	.word	0x00010198
    fd800000228c:	0000fd80 	.word	0x0000fd80
    fd8000002290:	000101d8 	.word	0x000101d8
    fd8000002294:	0000fd80 	.word	0x0000fd80
    fd8000002298:	00010218 	.word	0x00010218
    fd800000229c:	0000fd80 	.word	0x0000fd80
    fd80000022a0:	00012120 	.word	0x00012120
    fd80000022a4:	0000fd80 	.word	0x0000fd80
    fd80000022a8:	00010250 	.word	0x00010250
    fd80000022ac:	0000fd80 	.word	0x0000fd80
    fd80000022b0:	00010290 	.word	0x00010290
    fd80000022b4:	0000fd80 	.word	0x0000fd80
    fd80000022b8:	d503201f 	nop
    fd80000022bc:	d503201f 	nop

0000fd80000022c0 <smmu_alloc_ctxbnk>:

ssize_t smmu_alloc_ctxbnk()
{
    fd80000022c0:	a9be7bfd 	stp	x29, x30, [sp, #-32]!
    fd80000022c4:	910003fd 	mov	x29, sp
    fd80000022c8:	a90153f3 	stp	x19, x20, [sp, #16]
    uint32_t ticket;
    uint32_t next;
    uint32_t temp;

    (void)lock;
    __asm__ volatile(
    fd80000022cc:	90000000 	adrp	x0, fd8000002000 <smmu_init+0x90>
    fd80000022d0:	f941b013 	ldr	x19, [x0, #864]
    fd80000022d4:	91012263 	add	x3, x19, #0x48
    fd80000022d8:	91013264 	add	x4, x19, #0x4c
    fd80000022dc:	885ffc60 	ldaxr	w0, [x3]
    fd80000022e0:	11000401 	add	w1, w0, #0x1
    fd80000022e4:	88027c61 	stxr	w2, w1, [x3]
    fd80000022e8:	35ffffa2 	cbnz	w2, fd80000022dc <smmu_alloc_ctxbnk+0x1c>
    fd80000022ec:	88dffc81 	ldar	w1, [x4]
    fd80000022f0:	6b01001f 	cmp	w0, w1
    fd80000022f4:	54000060 	b.eq	fd8000002300 <smmu_alloc_ctxbnk+0x40>  // b.none
    fd80000022f8:	d503205f 	wfe
    fd80000022fc:	17fffffc 	b	fd80000022ec <smmu_alloc_ctxbnk+0x2c>
    spin_lock(&smmu.ctx_lock);
    /* Find a free context bank. */
    ssize_t nth = bitmap_find_nth(smmu.ctxbank_bitmap, smmu.ctx_num, 1, 0, false);
    fd8000002300:	f9402a61 	ldr	x1, [x19, #80]
    fd8000002304:	91016274 	add	x20, x19, #0x58
    fd8000002308:	aa1403e0 	mov	x0, x20
    fd800000230c:	52800004 	mov	w4, #0x0                   	// #0
    fd8000002310:	d2800003 	mov	x3, #0x0                   	// #0
    fd8000002314:	d2800022 	mov	x2, #0x1                   	// #1
    fd8000002318:	94001d0e 	bl	fd8000009750 <bitmap_find_nth>
    if (nth >= 0) {
    fd800000231c:	b7f800e0 	tbnz	x0, #63, fd8000002338 <smmu_alloc_ctxbnk+0x78>
    map[bit / BITMAP_GRANULE_LEN] |= ONE << (bit % BITMAP_GRANULE_LEN);
    fd8000002320:	d345fc03 	lsr	x3, x0, #5
    fd8000002324:	52800022 	mov	w2, #0x1                   	// #1
    fd8000002328:	1ac02042 	lsl	w2, w2, w0
    fd800000232c:	b8637a81 	ldr	w1, [x20, x3, lsl #2]
    fd8000002330:	2a020021 	orr	w1, w1, w2
    fd8000002334:	b8237a81 	str	w1, [x20, x3, lsl #2]

static inline void spin_unlock(spinlock_t* lock)
{
    uint32_t temp;

    __asm__ volatile(
    fd8000002338:	91013262 	add	x2, x19, #0x4c
    fd800000233c:	b9400041 	ldr	w1, [x2]
    fd8000002340:	11000421 	add	w1, w1, #0x1
    fd8000002344:	889ffc41 	stlr	w1, [x2]
    fd8000002348:	d5033b9f 	dsb	ish
    fd800000234c:	d503209f 	sev
        bitmap_set(smmu.ctxbank_bitmap, nth);
    }
    spin_unlock(&smmu.ctx_lock);

    return nth;
}
    fd8000002350:	a94153f3 	ldp	x19, x20, [sp, #16]
    fd8000002354:	a8c27bfd 	ldp	x29, x30, [sp], #32
    fd8000002358:	d65f03c0 	ret
    fd800000235c:	d503201f 	nop
    fd8000002360:	00013000 	.word	0x00013000
    fd8000002364:	0000fd80 	.word	0x0000fd80
    fd8000002368:	d503201f 	nop
    fd800000236c:	d503201f 	nop

0000fd8000002370 <smmu_write_ctxbnk>:
    __asm__ volatile(
    fd8000002370:	90000003 	adrp	x3, fd8000002000 <smmu_init+0x90>
    fd8000002374:	f9426c63 	ldr	x3, [x3, #1240]
    fd8000002378:	91012067 	add	x7, x3, #0x48
    fd800000237c:	91013068 	add	x8, x3, #0x4c
    fd8000002380:	885ffce4 	ldaxr	w4, [x7]
    fd8000002384:	11000485 	add	w5, w4, #0x1
    fd8000002388:	88067ce5 	stxr	w6, w5, [x7]
    fd800000238c:	35ffffa6 	cbnz	w6, fd8000002380 <smmu_write_ctxbnk+0x10>
    fd8000002390:	88dffd05 	ldar	w5, [x8]
    fd8000002394:	6b05009f 	cmp	w4, w5
    fd8000002398:	54000060 	b.eq	fd80000023a4 <smmu_write_ctxbnk+0x34>  // b.none
    fd800000239c:	d503205f 	wfe
    fd80000023a0:	17fffffc 	b	fd8000002390 <smmu_write_ctxbnk+0x20>
    return (map[bit / BITMAP_GRANULE_LEN] & (ONE << (bit % BITMAP_GRANULE_LEN))) ? 1U : 0U;
    fd80000023a4:	d345fc04 	lsr	x4, x0, #5
    fd80000023a8:	52800025 	mov	w5, #0x1                   	// #1
    fd80000023ac:	1ac020a6 	lsl	w6, w5, w0
    fd80000023b0:	8b040864 	add	x4, x3, x4, lsl #2
    fd80000023b4:	b9405884 	ldr	w4, [x4, #88]
    fd80000023b8:	6a0400df 	tst	w6, w4
    fd80000023bc:	540006a0 	b.eq	fd8000002490 <smmu_write_ctxbnk+0x120>  // b.none

        /**
         * This should closely match to the VTCR configuration set up in vmm_arch_init as we're
         * sharing page table between the VM and its smmu context.
         */
        uint32_t tcr = ((parange << SMMUV2_TCR_PS_OFF) & SMMUV2_TCR_PS_MSK);
    fd80000023c0:	90000004 	adrp	x4, fd8000002000 <smmu_init+0x90>
    fd80000023c4:	f9427086 	ldr	x6, [x4, #1248]
        size_t t0sz = 64 - parange_table[parange];
    fd80000023c8:	90000004 	adrp	x4, fd8000002000 <smmu_init+0x90>
    fd80000023cc:	f9427484 	ldr	x4, [x4, #1256]
        smmu.hw.glbl_rs1->CBAR[ctx_id] = SMMUV2_CBAR_VMID(vm_id);
    fd80000023d0:	12001c42 	and	w2, w2, #0xff
        uint32_t tcr = ((parange << SMMUV2_TCR_PS_OFF) & SMMUV2_TCR_PS_MSK);
    fd80000023d4:	f94000c7 	ldr	x7, [x6]
        tcr |= SMMUV2_TCR_ORGN0_WB_RA_WA;
        tcr |= SMMUV2_TCR_IRGN0_WB_RA_WA;
        tcr |= SMMUV2_TCR_T0SZ(t0sz);
        tcr |= SMMUV2_TCR_SH0_IS;
        tcr |= ((parange_table[parange] < 44) ? SMMUV2_TCR_SL0_1 : SMMUV2_TCR_SL0_0);
        smmu.hw.cntxt[ctx_id].TCR = tcr;
    fd80000023d8:	d374cc06 	lsl	x6, x0, #12
    fd80000023dc:	f9400468 	ldr	x8, [x3, #8]
        size_t t0sz = 64 - parange_table[parange];
    fd80000023e0:	f8677884 	ldr	x4, [x4, x7, lsl #3]
        uint32_t tcr = ((parange << SMMUV2_TCR_PS_OFF) & SMMUV2_TCR_PS_MSK);
    fd80000023e4:	531008e7 	ubfiz	w7, w7, #16, #3
    fd80000023e8:	8b000909 	add	x9, x8, x0, lsl #2
        smmu.hw.glbl_rs1->CBAR[ctx_id] = SMMUV2_CBAR_VMID(vm_id);
    fd80000023ec:	b8207902 	str	w2, [x8, x0, lsl #2]
        smmu.hw.cntxt[ctx_id].TCR = tcr;
    fd80000023f0:	f9400862 	ldr	x2, [x3, #16]
        size_t t0sz = 64 - parange_table[parange];
    fd80000023f4:	4b0403e0 	neg	w0, w4
        smmu.hw.glbl_rs1->CBA2R[ctx_id] = SMMUV2_CBAR_VA64;
    fd80000023f8:	b9080125 	str	w5, [x9, #2048]
        tcr |= SMMUV2_TCR_T0SZ(t0sz);
    fd80000023fc:	12001000 	and	w0, w0, #0x1f
        tcr |= ((parange_table[parange] < 44) ? SMMUV2_TCR_SL0_1 : SMMUV2_TCR_SL0_0);
    fd8000002400:	f100ac9f 	cmp	x4, #0x2b
    fd8000002404:	2a070000 	orr	w0, w0, w7
        smmu.hw.cntxt[ctx_id].TCR = tcr;
    fd8000002408:	8b060045 	add	x5, x2, x6
        tcr |= ((parange_table[parange] < 44) ? SMMUV2_TCR_SL0_1 : SMMUV2_TCR_SL0_0);
    fd800000240c:	54000508 	b.hi	fd80000024ac <smmu_write_ctxbnk+0x13c>  // b.pmore
    fd8000002410:	5286a807 	mov	w7, #0x3540                	// #13632
    fd8000002414:	2a070000 	orr	w0, w0, w7
        smmu.hw.cntxt[ctx_id].TCR = tcr;
    fd8000002418:	b90030a0 	str	w0, [x5, #48]
        if (t0sz >= 21 && t0sz <= 33) {
    fd800000241c:	d2800560 	mov	x0, #0x2b                  	// #43
    fd8000002420:	cb040000 	sub	x0, x0, x4
            offset = 37 - t0sz;
    fd8000002424:	d1006c84 	sub	x4, x4, #0x1b
        if (t0sz >= 21 && t0sz <= 33) {
    fd8000002428:	f100301f 	cmp	x0, #0xc
    fd800000242c:	54000508 	b.hi	fd80000024cc <smmu_write_ctxbnk+0x15c>  // b.pmore
        smmu.hw.cntxt[ctx_id].TTBR0 = root_pt & SMMUV2_CB_TTBA(smmu_cb_ttba_offset(t0sz));
    fd8000002430:	528005e7 	mov	w7, #0x2f                  	// #47
    fd8000002434:	4b0400e7 	sub	w7, w7, w4
    fd8000002438:	d2800040 	mov	x0, #0x2                   	// #2
    fd800000243c:	9ac72000 	lsl	x0, x0, x7
    fd8000002440:	d1000400 	sub	x0, x0, #0x1
    fd8000002444:	9ac42000 	lsl	x0, x0, x4
    fd8000002448:	8a000021 	and	x1, x1, x0
    fd800000244c:	f90010a1 	str	x1, [x5, #32]

        uint32_t sctlr = smmu.hw.cntxt[ctx_id].SCTLR;
        sctlr = SMMUV2_SCTLR_CLEAR(sctlr);
    fd8000002450:	5283c005 	mov	w5, #0x1e00                	// #7680
    fd8000002454:	72be0205 	movk	w5, #0xf010, lsl #16
        uint32_t sctlr = smmu.hw.cntxt[ctx_id].SCTLR;
    fd8000002458:	b8666840 	ldr	w0, [x2, x6]
        sctlr |= SMMUV2_SCTLR_DEFAULT;
        smmu.hw.cntxt[ctx_id].SCTLR |= sctlr;
    fd800000245c:	52801021 	mov	w1, #0x81                  	// #129
    fd8000002460:	b8666844 	ldr	w4, [x2, x6]
        sctlr = SMMUV2_SCTLR_CLEAR(sctlr);
    fd8000002464:	0a050000 	and	w0, w0, w5
        smmu.hw.cntxt[ctx_id].SCTLR |= sctlr;
    fd8000002468:	2a040000 	orr	w0, w0, w4
    fd800000246c:	2a010000 	orr	w0, w0, w1
    __asm__ volatile(
    fd8000002470:	91013061 	add	x1, x3, #0x4c
    fd8000002474:	b8266840 	str	w0, [x2, x6]
    fd8000002478:	b9400020 	ldr	w0, [x1]
    fd800000247c:	11000400 	add	w0, w0, #0x1
    fd8000002480:	889ffc20 	stlr	w0, [x1]
    fd8000002484:	d5033b9f 	dsb	ish
    fd8000002488:	d503209f 	sev
    fd800000248c:	d65f03c0 	ret
{
    fd8000002490:	a9bf7bfd 	stp	x29, x30, [sp, #-16]!
        ERROR("smmu ctx %d is already allocated", ctx_id);
    fd8000002494:	90000002 	adrp	x2, fd8000002000 <smmu_init+0x90>
    fd8000002498:	aa0003e1 	mov	x1, x0
{
    fd800000249c:	910003fd 	mov	x29, sp
        ERROR("smmu ctx %d is already allocated", ctx_id);
    fd80000024a0:	f9427840 	ldr	x0, [x2, #1264]
    fd80000024a4:	940028b7 	bl	fd800000c780 <console_printk>
    fd80000024a8:	14000000 	b	fd80000024a8 <smmu_write_ctxbnk+0x138>
        tcr |= ((parange_table[parange] < 44) ? SMMUV2_TCR_SL0_1 : SMMUV2_TCR_SL0_0);
    fd80000024ac:	5286b007 	mov	w7, #0x3580                	// #13696
    fd80000024b0:	2a070000 	orr	w0, w0, w7
        smmu.hw.cntxt[ctx_id].TCR = tcr;
    fd80000024b4:	b90030a0 	str	w0, [x5, #48]
        if (t0sz >= 16 && t0sz <= 24) {
    fd80000024b8:	d2800600 	mov	x0, #0x30                  	// #48
    fd80000024bc:	cb040000 	sub	x0, x0, x4
            offset = 28 - t0sz;
    fd80000024c0:	d1009084 	sub	x4, x4, #0x24
        if (t0sz >= 16 && t0sz <= 24) {
    fd80000024c4:	f100201f 	cmp	x0, #0x8
    fd80000024c8:	54fffb49 	b.ls	fd8000002430 <smmu_write_ctxbnk+0xc0>  // b.plast
{
    fd80000024cc:	b2748fe0 	mov	x0, #0xfffffffff000        	// #281474976706560
    fd80000024d0:	17ffffde 	b	fd8000002448 <smmu_write_ctxbnk+0xd8>
    fd80000024d4:	d503201f 	nop
    fd80000024d8:	00013000 	.word	0x00013000
    fd80000024dc:	0000fd80 	.word	0x0000fd80
    fd80000024e0:	00012120 	.word	0x00012120
    fd80000024e4:	0000fd80 	.word	0x0000fd80
    fd80000024e8:	00012020 	.word	0x00012020
    fd80000024ec:	0000fd80 	.word	0x0000fd80
    fd80000024f0:	000102d8 	.word	0x000102d8
    fd80000024f4:	0000fd80 	.word	0x0000fd80
    fd80000024f8:	d503201f 	nop
    fd80000024fc:	d503201f 	nop

0000fd8000002500 <smmu_alloc_sme>:
    }
    spin_unlock(&smmu.ctx_lock);
}

ssize_t smmu_alloc_sme()
{
    fd8000002500:	a9be7bfd 	stp	x29, x30, [sp, #-32]!
    fd8000002504:	910003fd 	mov	x29, sp
    fd8000002508:	a90153f3 	stp	x19, x20, [sp, #16]
    __asm__ volatile(
    fd800000250c:	90000000 	adrp	x0, fd8000002000 <smmu_init+0x90>
    fd8000002510:	f942d013 	ldr	x19, [x0, #1440]
    fd8000002514:	91006263 	add	x3, x19, #0x18
    fd8000002518:	91007264 	add	x4, x19, #0x1c
    fd800000251c:	885ffc60 	ldaxr	w0, [x3]
    fd8000002520:	11000401 	add	w1, w0, #0x1
    fd8000002524:	88027c61 	stxr	w2, w1, [x3]
    fd8000002528:	35ffffa2 	cbnz	w2, fd800000251c <smmu_alloc_sme+0x1c>
    fd800000252c:	88dffc81 	ldar	w1, [x4]
    fd8000002530:	6b01001f 	cmp	w0, w1
    fd8000002534:	54000060 	b.eq	fd8000002540 <smmu_alloc_sme+0x40>  // b.none
    fd8000002538:	d503205f 	wfe
    fd800000253c:	17fffffc 	b	fd800000252c <smmu_alloc_sme+0x2c>
    spin_lock(&smmu.sme_lock);
    /* Find a free sme. */
    ssize_t nth = bitmap_find_nth(smmu.sme_bitmap, smmu.sme_num, 1, 0, false);
    fd8000002540:	f9401261 	ldr	x1, [x19, #32]
    fd8000002544:	9100a274 	add	x20, x19, #0x28
    fd8000002548:	aa1403e0 	mov	x0, x20
    fd800000254c:	52800004 	mov	w4, #0x0                   	// #0
    fd8000002550:	d2800003 	mov	x3, #0x0                   	// #0
    fd8000002554:	d2800022 	mov	x2, #0x1                   	// #1
    fd8000002558:	94001c7e 	bl	fd8000009750 <bitmap_find_nth>
    if (nth >= 0) {
    fd800000255c:	b7f800e0 	tbnz	x0, #63, fd8000002578 <smmu_alloc_sme+0x78>
    map[bit / BITMAP_GRANULE_LEN] |= ONE << (bit % BITMAP_GRANULE_LEN);
    fd8000002560:	d345fc03 	lsr	x3, x0, #5
    fd8000002564:	52800022 	mov	w2, #0x1                   	// #1
    fd8000002568:	1ac02042 	lsl	w2, w2, w0
    fd800000256c:	b8637a81 	ldr	w1, [x20, x3, lsl #2]
    fd8000002570:	2a020021 	orr	w1, w1, w2
    fd8000002574:	b8237a81 	str	w1, [x20, x3, lsl #2]
    __asm__ volatile(
    fd8000002578:	91007262 	add	x2, x19, #0x1c
    fd800000257c:	b9400041 	ldr	w1, [x2]
    fd8000002580:	11000421 	add	w1, w1, #0x1
    fd8000002584:	889ffc41 	stlr	w1, [x2]
    fd8000002588:	d5033b9f 	dsb	ish
    fd800000258c:	d503209f 	sev
        bitmap_set(smmu.sme_bitmap, nth);
    }
    spin_unlock(&smmu.sme_lock);

    return nth;
}
    fd8000002590:	a94153f3 	ldp	x19, x20, [sp, #16]
    fd8000002594:	a8c27bfd 	ldp	x29, x30, [sp], #32
    fd8000002598:	d65f03c0 	ret
    fd800000259c:	d503201f 	nop
    fd80000025a0:	00013000 	.word	0x00013000
    fd80000025a4:	0000fd80 	.word	0x0000fd80
    fd80000025a8:	d503201f 	nop
    fd80000025ac:	d503201f 	nop

0000fd80000025b0 <smmu_compatible_sme_exists>:
    __asm__ volatile(
    fd80000025b0:	90000004 	adrp	x4, fd8000002000 <smmu_init+0x90>
    fd80000025b4:	f9437c87 	ldr	x7, [x4, #1784]
    fd80000025b8:	910060e8 	add	x8, x7, #0x18
    fd80000025bc:	910070e9 	add	x9, x7, #0x1c
    fd80000025c0:	885ffd04 	ldaxr	w4, [x8]
    fd80000025c4:	11000485 	add	w5, w4, #0x1
    fd80000025c8:	88067d05 	stxr	w6, w5, [x8]
    fd80000025cc:	35ffffa6 	cbnz	w6, fd80000025c0 <smmu_compatible_sme_exists+0x10>
    fd80000025d0:	88dffd25 	ldar	w5, [x9]
    fd80000025d4:	6b05009f 	cmp	w4, w5
    fd80000025d8:	54000060 	b.eq	fd80000025e4 <smmu_compatible_sme_exists+0x34>  // b.none
    fd80000025dc:	d503205f 	wfe
    fd80000025e0:	17fffffc 	b	fd80000025d0 <smmu_compatible_sme_exists+0x20>
{
    bool included = false;
    size_t sme = 0;

    spin_lock(&smmu.sme_lock);
    smmu_for_each_sme(sme)
    fd80000025e4:	f94010ea 	ldr	x10, [x7, #32]
    return (map[bit / BITMAP_GRANULE_LEN] & (ONE << (bit % BITMAP_GRANULE_LEN))) ? 1U : 0U;
    fd80000025e8:	b94028e4 	ldr	w4, [x7, #40]
    fd80000025ec:	b400072a 	cbz	x10, fd80000026d0 <smmu_compatible_sme_exists+0x120>
    return SMMU_SMR_MASK(smmu.hw.glbl_rs0->SMR[sme]);
    fd80000025f0:	aa0703ec 	mov	x12, x7
    fd80000025f4:	12001c63 	and	w3, w3, #0xff
    fd80000025f8:	92400084 	and	x4, x4, #0x1
        streamid_t mask_r = mask & sme_mask;
        streamid_t diff_id = (smmu_sme_get_id(sme) ^ id) & ~(mask | sme_mask);

        if (!diff_id) {
            /* Only group-to-group or device-to-group can be merged */
            if (((group || smmu_sme_is_group(sme)) && (mask_r == mask || mask_r == sme_mask)) &&
    fd80000025fc:	1200006f 	and	w15, w3, #0x1
    map[bit / BITMAP_GRANULE_LEN] &= ~(ONE << (bit % BITMAP_GRANULE_LEN));
    fd8000002600:	52800028 	mov	w8, #0x1                   	// #1
    size_t sme = 0;
    fd8000002604:	d2800003 	mov	x3, #0x0                   	// #0
    return SMMU_SMR_MASK(smmu.hw.glbl_rs0->SMR[sme]);
    fd8000002608:	f842858b 	ldr	x11, [x12], #40
    fd800000260c:	d503201f 	nop
    fd8000002610:	8b030966 	add	x6, x11, x3, lsl #2
    smmu_for_each_sme(sme)
    fd8000002614:	b40004c4 	cbz	x4, fd80000026ac <smmu_compatible_sme_exists+0xfc>
    return SMMU_SMR_MASK(smmu.hw.glbl_rs0->SMR[sme]);
    fd8000002618:	b94800c5 	ldr	w5, [x6, #2048]
    return SMMU_SMR_ID(smmu.hw.glbl_rs0->SMR[sme]);
    fd800000261c:	b94800c4 	ldr	w4, [x6, #2048]
    fd8000002620:	d35078a5 	ubfx	x5, x5, #16, #15
    fd8000002624:	12003884 	and	w4, w4, #0x7fff
        streamid_t diff_id = (smmu_sme_get_id(sme) ^ id) & ~(mask | sme_mask);
    fd8000002628:	2a050009 	orr	w9, w0, w5
    fd800000262c:	4a010084 	eor	w4, w4, w1
        if (!diff_id) {
    fd8000002630:	6a29009f 	bics	wzr, w4, w9
    fd8000002634:	540003c1 	b.ne	fd80000026ac <smmu_compatible_sme_exists+0xfc>  // b.any
    return (map[bit / BITMAP_GRANULE_LEN] & (ONE << (bit % BITMAP_GRANULE_LEN))) ? 1U : 0U;
    fd8000002638:	d345fc64 	lsr	x4, x3, #5
    map[bit / BITMAP_GRANULE_LEN] &= ~(ONE << (bit % BITMAP_GRANULE_LEN));
    fd800000263c:	aa0403ed 	mov	x13, x4
            if (((group || smmu_sme_is_group(sme)) && (mask_r == mask || mask_r == sme_mask)) &&
    fd8000002640:	3500018f 	cbnz	w15, fd8000002670 <smmu_compatible_sme_exists+0xc0>
    return (map[bit / BITMAP_GRANULE_LEN] & (ONE << (bit % BITMAP_GRANULE_LEN))) ? 1U : 0U;
    fd8000002644:	8b0408e4 	add	x4, x7, x4, lsl #2
    fd8000002648:	1ac32109 	lsl	w9, w8, w3
    fd800000264c:	b940388e 	ldr	w14, [x4, #56]
    fd8000002650:	6a0e013f 	tst	w9, w14
    fd8000002654:	540000e1 	b.ne	fd8000002670 <smmu_compatible_sme_exists+0xc0>  // b.any
{
    fd8000002658:	a9bf7bfd 	stp	x29, x30, [sp, #-16]!
    fd800000265c:	910003fd 	mov	x29, sp
                    included = true;
                    break;
                }

            } else {
                ERROR("SMMU sme conflict");
    fd8000002660:	90000000 	adrp	x0, fd8000002000 <smmu_init+0x90>
    fd8000002664:	f9438000 	ldr	x0, [x0, #1792]
    fd8000002668:	94002846 	bl	fd800000c780 <console_printk>
    fd800000266c:	14000000 	b	fd800000266c <smmu_compatible_sme_exists+0xbc>
            if (((group || smmu_sme_is_group(sme)) && (mask_r == mask || mask_r == sme_mask)) &&
    fd8000002670:	6a25001f 	bics	wzr, w0, w5
    map[bit / BITMAP_GRANULE_LEN] &= ~(ONE << (bit % BITMAP_GRANULE_LEN));
    fd8000002674:	1ac32109 	lsl	w9, w8, w3
    fd8000002678:	1a9f17e4 	cset	w4, eq	// eq = none
    fd800000267c:	6a2000bf 	bics	wzr, w5, w0
    fd8000002680:	1a9f17ee 	cset	w14, eq	// eq = none
    fd8000002684:	2a0e0090 	orr	w16, w4, w14
    fd8000002688:	34fffe90 	cbz	w16, fd8000002658 <smmu_compatible_sme_exists+0xa8>
    return S2CR_CBNDX(smmu.hw.glbl_rs0->S2CR[sme]);
    fd800000268c:	b94c00c4 	ldr	w4, [x6, #3072]
            if (((group || smmu_sme_is_group(sme)) && (mask_r == mask || mask_r == sme_mask)) &&
    fd8000002690:	eb24005f 	cmp	x2, w4, uxtb
    fd8000002694:	54fffe21 	b.ne	fd8000002658 <smmu_compatible_sme_exists+0xa8>  // b.any
                if (mask > sme_mask) {
    fd8000002698:	6b05001f 	cmp	w0, w5
    fd800000269c:	540001c9 	b.ls	fd80000026d4 <smmu_compatible_sme_exists+0x124>  // b.plast
    fd80000026a0:	b86d7984 	ldr	w4, [x12, x13, lsl #2]
    fd80000026a4:	0a290089 	bic	w9, w4, w9
    fd80000026a8:	b82d7989 	str	w9, [x12, x13, lsl #2]
    smmu_for_each_sme(sme)
    fd80000026ac:	91000463 	add	x3, x3, #0x1
    return (map[bit / BITMAP_GRANULE_LEN] & (ONE << (bit % BITMAP_GRANULE_LEN))) ? 1U : 0U;
    fd80000026b0:	d345fc64 	lsr	x4, x3, #5
    fd80000026b4:	1ac32105 	lsl	w5, w8, w3
    fd80000026b8:	8b0408e4 	add	x4, x7, x4, lsl #2
    fd80000026bc:	b9402884 	ldr	w4, [x4, #40]
    fd80000026c0:	6a0400bf 	tst	w5, w4
    fd80000026c4:	9a9f07e4 	cset	x4, ne	// ne = any
    fd80000026c8:	eb0a007f 	cmp	x3, x10
    fd80000026cc:	54fffa21 	b.ne	fd8000002610 <smmu_compatible_sme_exists+0x60>  // b.any
    bool included = false;
    fd80000026d0:	52800010 	mov	w16, #0x0                   	// #0
    __asm__ volatile(
    fd80000026d4:	910070e1 	add	x1, x7, #0x1c
    fd80000026d8:	b9400020 	ldr	w0, [x1]
    fd80000026dc:	11000400 	add	w0, w0, #0x1
    fd80000026e0:	889ffc20 	stlr	w0, [x1]
    fd80000026e4:	d5033b9f 	dsb	ish
    fd80000026e8:	d503209f 	sev
        }
    }
    spin_unlock(&smmu.sme_lock);

    return included;
}
    fd80000026ec:	2a1003e0 	mov	w0, w16
    fd80000026f0:	d65f03c0 	ret
    fd80000026f4:	d503201f 	nop
    fd80000026f8:	00013000 	.word	0x00013000
    fd80000026fc:	0000fd80 	.word	0x0000fd80
    fd8000002700:	00010308 	.word	0x00010308
    fd8000002704:	0000fd80 	.word	0x0000fd80
    fd8000002708:	d503201f 	nop
    fd800000270c:	d503201f 	nop

0000fd8000002710 <smmu_write_sme>:
    __asm__ volatile(
    fd8000002710:	90000004 	adrp	x4, fd8000002000 <smmu_init+0x90>
    fd8000002714:	f943f084 	ldr	x4, [x4, #2016]
    fd8000002718:	91006088 	add	x8, x4, #0x18
    fd800000271c:	91007089 	add	x9, x4, #0x1c
    fd8000002720:	885ffd05 	ldaxr	w5, [x8]
    fd8000002724:	110004a6 	add	w6, w5, #0x1
    fd8000002728:	88077d06 	stxr	w7, w6, [x8]
    fd800000272c:	35ffffa7 	cbnz	w7, fd8000002720 <smmu_write_sme+0x10>
    fd8000002730:	88dffd26 	ldar	w6, [x9]
    fd8000002734:	6b0600bf 	cmp	w5, w6
    fd8000002738:	54000060 	b.eq	fd8000002744 <smmu_write_sme+0x34>  // b.none
    fd800000273c:	d503205f 	wfe
    fd8000002740:	17fffffc 	b	fd8000002730 <smmu_write_sme+0x20>
    fd8000002744:	d345fc06 	lsr	x6, x0, #5
    fd8000002748:	52800025 	mov	w5, #0x1                   	// #1
    fd800000274c:	1ac020a5 	lsl	w5, w5, w0
    fd8000002750:	8b060887 	add	x7, x4, x6, lsl #2
    fd8000002754:	b94028e7 	ldr	w7, [x7, #40]
    fd8000002758:	6a0700bf 	tst	w5, w7
    fd800000275c:	54000320 	b.eq	fd80000027c0 <smmu_write_sme+0xb0>  // b.none
{
    spin_lock(&smmu.sme_lock);
    if (!bitmap_get(smmu.sme_bitmap, sme)) {
        ERROR("smmu: trying to write unallocated sme %d", sme);
    } else {
        smmu.hw.glbl_rs0->SMR[sme] = mask << SMMU_SMR_MASK_OFF;
    fd8000002760:	f9400087 	ldr	x7, [x4]
    fd8000002764:	53103c21 	lsl	w1, w1, #16
        smmu.hw.glbl_rs0->SMR[sme] |= id & SMMU_ID_MSK;
    fd8000002768:	12003842 	and	w2, w2, #0x7fff
    fd800000276c:	12001c63 	and	w3, w3, #0xff
    fd8000002770:	8b0008e0 	add	x0, x7, x0, lsl #2
        smmu.hw.glbl_rs0->SMR[sme] = mask << SMMU_SMR_MASK_OFF;
    fd8000002774:	b9080001 	str	w1, [x0, #2048]
        smmu.hw.glbl_rs0->SMR[sme] |= id & SMMU_ID_MSK;
    fd8000002778:	b9480001 	ldr	w1, [x0, #2048]
    fd800000277c:	2a010042 	orr	w2, w2, w1
    fd8000002780:	b9080002 	str	w2, [x0, #2048]
        smmu.hw.glbl_rs0->SMR[sme] |= SMMUV2_SMR_VALID;
    fd8000002784:	b9480001 	ldr	w1, [x0, #2048]
    fd8000002788:	32010021 	orr	w1, w1, #0x80000000
    fd800000278c:	b9080001 	str	w1, [x0, #2048]

        if (group) {
    fd8000002790:	360000a3 	tbz	w3, #0, fd80000027a4 <smmu_write_sme+0x94>
    map[bit / BITMAP_GRANULE_LEN] |= ONE << (bit % BITMAP_GRANULE_LEN);
    fd8000002794:	9100e081 	add	x1, x4, #0x38
    fd8000002798:	b8667820 	ldr	w0, [x1, x6, lsl #2]
    fd800000279c:	2a050000 	orr	w0, w0, w5
    fd80000027a0:	b8267820 	str	w0, [x1, x6, lsl #2]
    __asm__ volatile(
    fd80000027a4:	91007081 	add	x1, x4, #0x1c
    fd80000027a8:	b9400020 	ldr	w0, [x1]
    fd80000027ac:	11000400 	add	w0, w0, #0x1
    fd80000027b0:	889ffc20 	stlr	w0, [x1]
    fd80000027b4:	d5033b9f 	dsb	ish
    fd80000027b8:	d503209f 	sev
    fd80000027bc:	d65f03c0 	ret
{
    fd80000027c0:	a9bf7bfd 	stp	x29, x30, [sp, #-16]!
        ERROR("smmu: trying to write unallocated sme %d", sme);
    fd80000027c4:	90000002 	adrp	x2, fd8000002000 <smmu_init+0x90>
    fd80000027c8:	aa0003e1 	mov	x1, x0
{
    fd80000027cc:	910003fd 	mov	x29, sp
        ERROR("smmu: trying to write unallocated sme %d", sme);
    fd80000027d0:	f943f440 	ldr	x0, [x2, #2024]
    fd80000027d4:	940027eb 	bl	fd800000c780 <console_printk>
    fd80000027d8:	14000000 	b	fd80000027d8 <smmu_write_sme+0xc8>
    fd80000027dc:	d503201f 	nop
    fd80000027e0:	00013000 	.word	0x00013000
    fd80000027e4:	0000fd80 	.word	0x0000fd80
    fd80000027e8:	00010328 	.word	0x00010328
    fd80000027ec:	0000fd80 	.word	0x0000fd80

0000fd80000027f0 <smmu_write_s2c>:
    }
    spin_unlock(&smmu.sme_lock);
}

void smmu_write_s2c(size_t sme, size_t ctx_id)
{
    fd80000027f0:	a9bf7bfd 	stp	x29, x30, [sp, #-16]!
    fd80000027f4:	910003fd 	mov	x29, sp
    __asm__ volatile(
    fd80000027f8:	90000002 	adrp	x2, fd8000002000 <smmu_init+0x90>
    fd80000027fc:	f9446442 	ldr	x2, [x2, #2248]
    fd8000002800:	91006047 	add	x7, x2, #0x18
    fd8000002804:	91007048 	add	x8, x2, #0x1c
    fd8000002808:	885ffce4 	ldaxr	w4, [x7]
    fd800000280c:	11000485 	add	w5, w4, #0x1
    fd8000002810:	88067ce5 	stxr	w6, w5, [x7]
    fd8000002814:	35ffffa6 	cbnz	w6, fd8000002808 <smmu_write_s2c+0x18>
    fd8000002818:	88dffd05 	ldar	w5, [x8]
    fd800000281c:	6b05009f 	cmp	w4, w5
    fd8000002820:	54000060 	b.eq	fd800000282c <smmu_write_s2c+0x3c>  // b.none
    fd8000002824:	d503205f 	wfe
    fd8000002828:	17fffffc 	b	fd8000002818 <smmu_write_s2c+0x28>
    return (map[bit / BITMAP_GRANULE_LEN] & (ONE << (bit % BITMAP_GRANULE_LEN))) ? 1U : 0U;
    fd800000282c:	d345fc24 	lsr	x4, x1, #5
    fd8000002830:	52800025 	mov	w5, #0x1                   	// #1
    fd8000002834:	1ac120a6 	lsl	w6, w5, w1
    fd8000002838:	8b040844 	add	x4, x2, x4, lsl #2
    fd800000283c:	b9405884 	ldr	w4, [x4, #88]
    fd8000002840:	6a0400df 	tst	w6, w4
    fd8000002844:	540002e0 	b.eq	fd80000028a0 <smmu_write_s2c+0xb0>  // b.none
    fd8000002848:	aa0103e3 	mov	x3, x1
    fd800000284c:	d345fc01 	lsr	x1, x0, #5
    fd8000002850:	1ac020a5 	lsl	w5, w5, w0
    fd8000002854:	8b010841 	add	x1, x2, x1, lsl #2
    fd8000002858:	b9402821 	ldr	w1, [x1, #40]
    fd800000285c:	6a0100bf 	tst	w5, w1
    fd8000002860:	54000280 	b.eq	fd80000028b0 <smmu_write_s2c+0xc0>  // b.none
        ERROR("smmu: trying to write unallocated s2c %d", ctx_id);
    } else if (!bitmap_get(smmu.sme_bitmap, sme)) {
        ERROR("smmu: trying to bind unallocated sme %d", sme);
    } else {
        /* Initial contex is a translation context. */
        uint32_t s2cr = smmu.hw.glbl_rs0->S2CR[sme];
    fd8000002864:	f9400041 	ldr	x1, [x2]

        s2cr = S2CR_CLEAR(s2cr);
        s2cr |= S2CR_DFLT;
        s2cr |= ctx_id & S2CR_CBNDX_MASK;
    fd8000002868:	12001c63 	and	w3, w3, #0xff
    fd800000286c:	8b000821 	add	x1, x1, x0, lsl #2
        uint32_t s2cr = smmu.hw.glbl_rs0->S2CR[sme];
    fd8000002870:	b94c0020 	ldr	w0, [x1, #3072]
        s2cr = S2CR_CLEAR(s2cr);
    fd8000002874:	12020400 	and	w0, w0, #0xc0000000
        s2cr |= ctx_id & S2CR_CBNDX_MASK;
    fd8000002878:	2a000060 	orr	w0, w3, w0

        smmu.hw.glbl_rs0->S2CR[sme] = s2cr;
    fd800000287c:	b90c0020 	str	w0, [x1, #3072]
    __asm__ volatile(
    fd8000002880:	91007041 	add	x1, x2, #0x1c
    fd8000002884:	b9400020 	ldr	w0, [x1]
    fd8000002888:	11000400 	add	w0, w0, #0x1
    fd800000288c:	889ffc20 	stlr	w0, [x1]
    fd8000002890:	d5033b9f 	dsb	ish
    fd8000002894:	d503209f 	sev
    }
    spin_unlock(&smmu.sme_lock);
}
    fd8000002898:	a8c17bfd 	ldp	x29, x30, [sp], #16
    fd800000289c:	d65f03c0 	ret
        ERROR("smmu: trying to write unallocated s2c %d", ctx_id);
    fd80000028a0:	90000000 	adrp	x0, fd8000002000 <smmu_init+0x90>
    fd80000028a4:	f9446800 	ldr	x0, [x0, #2256]
    fd80000028a8:	940027b6 	bl	fd800000c780 <console_printk>
    fd80000028ac:	14000000 	b	fd80000028ac <smmu_write_s2c+0xbc>
        ERROR("smmu: trying to bind unallocated sme %d", sme);
    fd80000028b0:	90000002 	adrp	x2, fd8000002000 <smmu_init+0x90>
    fd80000028b4:	aa0003e1 	mov	x1, x0
    fd80000028b8:	f9446c40 	ldr	x0, [x2, #2264]
    fd80000028bc:	940027b1 	bl	fd800000c780 <console_printk>
    fd80000028c0:	14000000 	b	fd80000028c0 <smmu_write_s2c+0xd0>
    fd80000028c4:	d503201f 	nop
    fd80000028c8:	00013000 	.word	0x00013000
    fd80000028cc:	0000fd80 	.word	0x0000fd80
    fd80000028d0:	00010360 	.word	0x00010360
    fd80000028d4:	0000fd80 	.word	0x0000fd80
    fd80000028d8:	00010398 	.word	0x00010398
    fd80000028dc:	0000fd80 	.word	0x0000fd80

0000fd80000028e0 <iommu_vm_arch_add>:
    /* Ctx is valid when we get here. */
    return ctx_id;
}

static bool iommu_vm_arch_add(struct vm* vm, streamid_t mask, streamid_t id)
{
    fd80000028e0:	a9bb7bfd 	stp	x29, x30, [sp, #-80]!
    fd80000028e4:	910003fd 	mov	x29, sp
    fd80000028e8:	a9025bf5 	stp	x21, x22, [sp, #32]
    fd80000028ec:	aa0003f5 	mov	x21, x0
    ssize_t ctx_id = vm->io.prot.mmu.ctx_id;
    fd80000028f0:	f940dc16 	ldr	x22, [x0, #440]
{
    fd80000028f4:	a90153f3 	stp	x19, x20, [sp, #16]
    fd80000028f8:	2a0103f3 	mov	w19, w1
    fd80000028fc:	f9001bf7 	str	x23, [sp, #48]
    fd8000002900:	2a0203f4 	mov	w20, w2
    if (ctx_id < 0) {
    fd8000002904:	b7f80276 	tbnz	x22, #63, fd8000002950 <iommu_vm_arch_add+0x70>
    ssize_t vm_ctx = iommu_vm_arch_init_ctx(vm);
    streamid_t glbl_mask = vm->io.prot.mmu.global_mask;
    streamid_t prep_mask = (mask & SMMU_ID_MSK) | glbl_mask;
    streamid_t prep_id = (id & SMMU_ID_MSK);
    bool group = (bool)mask;
    fd8000002908:	7100003f 	cmp	w1, #0x0
    streamid_t prep_mask = (mask & SMMU_ID_MSK) | glbl_mask;
    fd800000290c:	b941b000 	ldr	w0, [x0, #432]
    fd8000002910:	12003833 	and	w19, w1, #0x7fff
    streamid_t prep_id = (id & SMMU_ID_MSK);
    fd8000002914:	12003854 	and	w20, w2, #0x7fff
    bool group = (bool)mask;
    fd8000002918:	1a9f07f7 	cset	w23, ne	// ne = any
    streamid_t prep_mask = (mask & SMMU_ID_MSK) | glbl_mask;
    fd800000291c:	2a000273 	orr	w19, w19, w0

    if (vm_ctx < 0) {
        return false;
    }

    if (!smmu_compatible_sme_exists(prep_mask, prep_id, vm_ctx, group)) {
    fd8000002920:	2a1703e3 	mov	w3, w23
    fd8000002924:	aa1603e2 	mov	x2, x22
    fd8000002928:	2a1403e1 	mov	w1, w20
    fd800000292c:	2a1303e0 	mov	w0, w19
    fd8000002930:	97ffff20 	bl	fd80000025b0 <smmu_compatible_sme_exists>
    fd8000002934:	36000420 	tbz	w0, #0, fd80000029b8 <iommu_vm_arch_add+0xd8>
        }
        smmu_write_sme(sme, prep_mask, prep_id, group);
        smmu_write_s2c(sme, vm_ctx);
    }

    return true;
    fd8000002938:	52800020 	mov	w0, #0x1                   	// #1
}
    fd800000293c:	a94153f3 	ldp	x19, x20, [sp, #16]
    fd8000002940:	a9425bf5 	ldp	x21, x22, [sp, #32]
    fd8000002944:	f9401bf7 	ldr	x23, [sp, #48]
    fd8000002948:	a8c57bfd 	ldp	x29, x30, [sp], #80
    fd800000294c:	d65f03c0 	ret
        ctx_id = smmu_alloc_ctxbnk();
    fd8000002950:	97fffe5c 	bl	fd80000022c0 <smmu_alloc_ctxbnk>
    fd8000002954:	aa0003f6 	mov	x22, x0
        if (ctx_id >= 0) {
    fd8000002958:	b7f80460 	tbnz	x0, #63, fd80000029e4 <iommu_vm_arch_add+0x104>
            mem_translate(&cpu()->as, (vaddr_t)vm->as.pt.root, &rootpt);
    fd800000295c:	f9402ea1 	ldr	x1, [x21, #88]
    fd8000002960:	d2800200 	mov	x0, #0x10                  	// #16
    fd8000002964:	910123e2 	add	x2, sp, #0x48
    fd8000002968:	f2dfc000 	movk	x0, #0xfe00, lsl #32
    streamid_t prep_id = (id & SMMU_ID_MSK);
    fd800000296c:	12003a94 	and	w20, w20, #0x7fff
            mem_translate(&cpu()->as, (vaddr_t)vm->as.pt.root, &rootpt);
    fd8000002970:	97fffc80 	bl	fd8000001b70 <mem_translate>
            smmu_write_ctxbnk(ctx_id, rootpt, vm->id);
    fd8000002974:	f94002a2 	ldr	x2, [x21]
    fd8000002978:	aa1603e0 	mov	x0, x22
    fd800000297c:	f94027e1 	ldr	x1, [sp, #72]
    fd8000002980:	97fffe7c 	bl	fd8000002370 <smmu_write_ctxbnk>
            vm->io.prot.mmu.ctx_id = ctx_id;
    fd8000002984:	f900deb6 	str	x22, [x21, #440]
    bool group = (bool)mask;
    fd8000002988:	7100027f 	cmp	w19, #0x0
    streamid_t prep_mask = (mask & SMMU_ID_MSK) | glbl_mask;
    fd800000298c:	b941b2a0 	ldr	w0, [x21, #432]
    fd8000002990:	12003a73 	and	w19, w19, #0x7fff
    bool group = (bool)mask;
    fd8000002994:	1a9f07f7 	cset	w23, ne	// ne = any
    streamid_t prep_mask = (mask & SMMU_ID_MSK) | glbl_mask;
    fd8000002998:	2a000273 	orr	w19, w19, w0
    if (!smmu_compatible_sme_exists(prep_mask, prep_id, vm_ctx, group)) {
    fd800000299c:	2a1703e3 	mov	w3, w23
    fd80000029a0:	aa1603e2 	mov	x2, x22
    fd80000029a4:	2a1403e1 	mov	w1, w20
    fd80000029a8:	2a1303e0 	mov	w0, w19
    fd80000029ac:	97ffff01 	bl	fd80000025b0 <smmu_compatible_sme_exists>
    fd80000029b0:	3707fc40 	tbnz	w0, #0, fd8000002938 <iommu_vm_arch_add+0x58>
    fd80000029b4:	d503201f 	nop
        ssize_t sme = smmu_alloc_sme();
    fd80000029b8:	97fffed2 	bl	fd8000002500 <smmu_alloc_sme>
    fd80000029bc:	aa0003f5 	mov	x21, x0
        if (sme < 0) {
    fd80000029c0:	b7f801e0 	tbnz	x0, #63, fd80000029fc <iommu_vm_arch_add+0x11c>
        smmu_write_sme(sme, prep_mask, prep_id, group);
    fd80000029c4:	2a1703e3 	mov	w3, w23
    fd80000029c8:	2a1403e2 	mov	w2, w20
    fd80000029cc:	2a1303e1 	mov	w1, w19
    fd80000029d0:	97ffff50 	bl	fd8000002710 <smmu_write_sme>
        smmu_write_s2c(sme, vm_ctx);
    fd80000029d4:	aa1603e1 	mov	x1, x22
    fd80000029d8:	aa1503e0 	mov	x0, x21
    fd80000029dc:	97ffff85 	bl	fd80000027f0 <smmu_write_s2c>
    fd80000029e0:	17ffffd6 	b	fd8000002938 <iommu_vm_arch_add+0x58>
            INFO("iommu: smmuv2 could not allocate ctx for vm: %d", vm->id);
    fd80000029e4:	f94002a1 	ldr	x1, [x21]
    fd80000029e8:	90000000 	adrp	x0, fd8000002000 <smmu_init+0x90>
    fd80000029ec:	f9450800 	ldr	x0, [x0, #2576]
    fd80000029f0:	94002764 	bl	fd800000c780 <console_printk>
        return false;
    fd80000029f4:	52800000 	mov	w0, #0x0                   	// #0
    fd80000029f8:	17ffffd1 	b	fd800000293c <iommu_vm_arch_add+0x5c>
            INFO("iommu: smmuv2 no more free sme available.");
    fd80000029fc:	90000000 	adrp	x0, fd8000002000 <smmu_init+0x90>
    fd8000002a00:	f9450c00 	ldr	x0, [x0, #2584]
    fd8000002a04:	9400275f 	bl	fd800000c780 <console_printk>
        return false;
    fd8000002a08:	52800000 	mov	w0, #0x0                   	// #0
    fd8000002a0c:	17ffffcc 	b	fd800000293c <iommu_vm_arch_add+0x5c>
    fd8000002a10:	000103d0 	.word	0x000103d0
    fd8000002a14:	0000fd80 	.word	0x0000fd80
    fd8000002a18:	00010410 	.word	0x00010410
    fd8000002a1c:	0000fd80 	.word	0x0000fd80

0000fd8000002a20 <iommu_arch_init>:
    if (cpu()->id == CPU_MASTER && platform.arch.smmu.base) {
    fd8000002a20:	90000000 	adrp	x0, fd8000002000 <smmu_init+0x90>
    fd8000002a24:	f9453801 	ldr	x1, [x0, #2672]
    fd8000002a28:	d2dfc002 	mov	x2, #0xfe0000000000        	// #279275953455104
    return false;
    fd8000002a2c:	52800000 	mov	w0, #0x0                   	// #0
    if (cpu()->id == CPU_MASTER && platform.arch.smmu.base) {
    fd8000002a30:	f9400042 	ldr	x2, [x2]
    fd8000002a34:	f9400021 	ldr	x1, [x1]
    fd8000002a38:	eb01005f 	cmp	x2, x1
    fd8000002a3c:	54000040 	b.eq	fd8000002a44 <iommu_arch_init+0x24>  // b.none
}
    fd8000002a40:	d65f03c0 	ret
    if (cpu()->id == CPU_MASTER && platform.arch.smmu.base) {
    fd8000002a44:	90000001 	adrp	x1, fd8000002000 <smmu_init+0x90>
    fd8000002a48:	f9453c21 	ldr	x1, [x1, #2680]
    fd8000002a4c:	f9412c21 	ldr	x1, [x1, #600]
    fd8000002a50:	b4ffff81 	cbz	x1, fd8000002a40 <iommu_arch_init+0x20>
{
    fd8000002a54:	a9bf7bfd 	stp	x29, x30, [sp, #-16]!
    fd8000002a58:	910003fd 	mov	x29, sp
        smmu_init();
    fd8000002a5c:	97fffd45 	bl	fd8000001f70 <smmu_init>
        return true;
    fd8000002a60:	52800020 	mov	w0, #0x1                   	// #1
}
    fd8000002a64:	a8c17bfd 	ldp	x29, x30, [sp], #16
    fd8000002a68:	d65f03c0 	ret
    fd8000002a6c:	d503201f 	nop
    fd8000002a70:	00012348 	.word	0x00012348
    fd8000002a74:	0000fd80 	.word	0x0000fd80
    fd8000002a78:	000129b0 	.word	0x000129b0
    fd8000002a7c:	0000fd80 	.word	0x0000fd80

0000fd8000002a80 <iommu_arch_vm_add_device>:

inline bool iommu_arch_vm_add_device(struct vm* vm, streamid_t id)
{
    fd8000002a80:	2a0103e2 	mov	w2, w1
    return iommu_vm_arch_add(vm, 0, id);
    fd8000002a84:	52800001 	mov	w1, #0x0                   	// #0
    fd8000002a88:	17ffff96 	b	fd80000028e0 <iommu_vm_arch_add>
    fd8000002a8c:	d503201f 	nop

0000fd8000002a90 <iommu_arch_vm_init>:
}

bool iommu_arch_vm_init(struct vm* vm, const struct vm_config* config)
{
    fd8000002a90:	a9bd7bfd 	stp	x29, x30, [sp, #-48]!
    vm->io.prot.mmu.global_mask =
        config->platform.arch.smmu.global_mask | platform.arch.smmu.global_mask;
    vm->io.prot.mmu.ctx_id = -1;
    fd8000002a94:	92800003 	mov	x3, #0xffffffffffffffff    	// #-1
{
    fd8000002a98:	910003fd 	mov	x29, sp
        config->platform.arch.smmu.global_mask | platform.arch.smmu.global_mask;
    fd8000002a9c:	90000002 	adrp	x2, fd8000002000 <smmu_init+0x90>
    fd8000002aa0:	f945a042 	ldr	x2, [x2, #2880]
{
    fd8000002aa4:	a9025bf5 	stp	x21, x22, [sp, #32]
    fd8000002aa8:	aa0003f6 	mov	x22, x0
    fd8000002aac:	aa0103f5 	mov	x21, x1
        config->platform.arch.smmu.global_mask | platform.arch.smmu.global_mask;
    fd8000002ab0:	b940c020 	ldr	w0, [x1, #192]

    /* This section relates only to arm's iommu so we parse it here. */
    for (size_t i = 0; i < config->platform.arch.smmu.group_num; i++) {
    fd8000002ab4:	f9406421 	ldr	x1, [x1, #200]
        config->platform.arch.smmu.global_mask | platform.arch.smmu.global_mask;
    fd8000002ab8:	b9426442 	ldr	w2, [x2, #612]
    vm->io.prot.mmu.ctx_id = -1;
    fd8000002abc:	f900dec3 	str	x3, [x22, #440]
        config->platform.arch.smmu.global_mask | platform.arch.smmu.global_mask;
    fd8000002ac0:	2a020000 	orr	w0, w0, w2
    vm->io.prot.mmu.global_mask =
    fd8000002ac4:	b901b2c0 	str	w0, [x22, #432]
    for (size_t i = 0; i < config->platform.arch.smmu.group_num; i++) {
    fd8000002ac8:	b4000301 	cbz	x1, fd8000002b28 <iommu_arch_vm_init+0x98>
    fd8000002acc:	a90153f3 	stp	x19, x20, [sp, #16]
    fd8000002ad0:	d2800013 	mov	x19, #0x0                   	// #0
    fd8000002ad4:	d2800014 	mov	x20, #0x0                   	// #0
    fd8000002ad8:	14000005 	b	fd8000002aec <iommu_arch_vm_init+0x5c>
    fd8000002adc:	f94066a1 	ldr	x1, [x21, #200]
    fd8000002ae0:	91002273 	add	x19, x19, #0x8
    fd8000002ae4:	eb14003f 	cmp	x1, x20
    fd8000002ae8:	540001e9 	b.ls	fd8000002b24 <iommu_arch_vm_init+0x94>  // b.plast
        /* Register each group. */
        const struct smmu_group* group = &config->platform.arch.smmu.groups[i];
    fd8000002aec:	f9406aa2 	ldr	x2, [x21, #208]
        if (!iommu_vm_arch_add(vm, group->mask, group->id)) {
    fd8000002af0:	aa1603e0 	mov	x0, x22
    for (size_t i = 0; i < config->platform.arch.smmu.group_num; i++) {
    fd8000002af4:	91000694 	add	x20, x20, #0x1
        const struct smmu_group* group = &config->platform.arch.smmu.groups[i];
    fd8000002af8:	8b130043 	add	x3, x2, x19
        if (!iommu_vm_arch_add(vm, group->mask, group->id)) {
    fd8000002afc:	b8736841 	ldr	w1, [x2, x19]
    fd8000002b00:	b9400462 	ldr	w2, [x3, #4]
    fd8000002b04:	97ffff77 	bl	fd80000028e0 <iommu_vm_arch_add>
    fd8000002b08:	12001c01 	and	w1, w0, #0xff
    fd8000002b0c:	3707fe80 	tbnz	w0, #0, fd8000002adc <iommu_arch_vm_init+0x4c>
    fd8000002b10:	a94153f3 	ldp	x19, x20, [sp, #16]
            return false;
        }
    }

    return true;
}
    fd8000002b14:	2a0103e0 	mov	w0, w1
    fd8000002b18:	a9425bf5 	ldp	x21, x22, [sp, #32]
    fd8000002b1c:	a8c37bfd 	ldp	x29, x30, [sp], #48
    fd8000002b20:	d65f03c0 	ret
    fd8000002b24:	a94153f3 	ldp	x19, x20, [sp, #16]
    return true;
    fd8000002b28:	52800021 	mov	w1, #0x1                   	// #1
}
    fd8000002b2c:	a9425bf5 	ldp	x21, x22, [sp, #32]
    fd8000002b30:	2a0103e0 	mov	w0, w1
    fd8000002b34:	a8c37bfd 	ldp	x29, x30, [sp], #48
    fd8000002b38:	d65f03c0 	ret
    fd8000002b3c:	d503201f 	nop
    fd8000002b40:	000129b0 	.word	0x000129b0
    fd8000002b44:	0000fd80 	.word	0x0000fd80
	...

0000fd8000002b50 <cpu_arch_profile_init>:
#include <platform.h>
#include <arch/psci.h>
#include <arch/sysregs.h>

void cpu_arch_profile_init(cpuid_t cpuid, paddr_t load_addr)
{
    fd8000002b50:	a9bd7bfd 	stp	x29, x30, [sp, #-48]!
    fd8000002b54:	910003fd 	mov	x29, sp
    if (cpuid == CPU_MASTER) {
    fd8000002b58:	90000002 	adrp	x2, fd8000002000 <smmu_init+0x90>
    fd8000002b5c:	f9460042 	ldr	x2, [x2, #3072]
{
    fd8000002b60:	a90153f3 	stp	x19, x20, [sp, #16]
    fd8000002b64:	aa0003f4 	mov	x20, x0
    if (cpuid == CPU_MASTER) {
    fd8000002b68:	f9400040 	ldr	x0, [x2]
    fd8000002b6c:	eb14001f 	cmp	x0, x20
    fd8000002b70:	54000080 	b.eq	fd8000002b80 <cpu_arch_profile_init+0x30>  // b.none
            if (!(result == PSCI_E_SUCCESS || result == PSCI_E_ALREADY_ON)) {
                ERROR("cant wake up cpu %d", cpu_core_id);
            }
        }
    }
}
    fd8000002b74:	a94153f3 	ldp	x19, x20, [sp, #16]
    fd8000002b78:	a8c37bfd 	ldp	x29, x30, [sp], #48
    fd8000002b7c:	d65f03c0 	ret
        for (size_t cpu_core_id = 0; cpu_core_id < platform.cpu_num; cpu_core_id++) {
    fd8000002b80:	a9025bf5 	stp	x21, x22, [sp, #32]
    fd8000002b84:	90000000 	adrp	x0, fd8000002000 <smmu_init+0x90>
    fd8000002b88:	f9460416 	ldr	x22, [x0, #3080]
    fd8000002b8c:	f94002c0 	ldr	x0, [x22]
    fd8000002b90:	b4000240 	cbz	x0, fd8000002bd8 <cpu_arch_profile_init+0x88>
    fd8000002b94:	aa0103f5 	mov	x21, x1
    fd8000002b98:	d2800013 	mov	x19, #0x0                   	// #0
    fd8000002b9c:	d503201f 	nop
            unsigned long mpidr = cpu_id_to_mpidr(cpu_core_id);
    fd8000002ba0:	aa1303e0 	mov	x0, x19
            if (cpu_core_id == cpuid) {
    fd8000002ba4:	eb13029f 	cmp	x20, x19
    fd8000002ba8:	54000100 	b.eq	fd8000002bc8 <cpu_arch_profile_init+0x78>  // b.none
            unsigned long mpidr = cpu_id_to_mpidr(cpu_core_id);
    fd8000002bac:	940003c9 	bl	fd8000003ad0 <cpu_id_to_mpidr>
            int32_t result = psci_cpu_on(mpidr, load_addr, 0);
    fd8000002bb0:	d2800002 	mov	x2, #0x0                   	// #0
    fd8000002bb4:	aa1503e1 	mov	x1, x21
    fd8000002bb8:	97fffcb2 	bl	fd8000001e80 <psci_cpu_on>
            if (!(result == PSCI_E_SUCCESS || result == PSCI_E_ALREADY_ON)) {
    fd8000002bbc:	11001002 	add	w2, w0, #0x4
    fd8000002bc0:	721d785f 	tst	w2, #0xfffffffb
    fd8000002bc4:	54000121 	b.ne	fd8000002be8 <cpu_arch_profile_init+0x98>  // b.any
        for (size_t cpu_core_id = 0; cpu_core_id < platform.cpu_num; cpu_core_id++) {
    fd8000002bc8:	f94002c0 	ldr	x0, [x22]
    fd8000002bcc:	91000673 	add	x19, x19, #0x1
    fd8000002bd0:	eb13001f 	cmp	x0, x19
    fd8000002bd4:	54fffe68 	b.hi	fd8000002ba0 <cpu_arch_profile_init+0x50>  // b.pmore
}
    fd8000002bd8:	a94153f3 	ldp	x19, x20, [sp, #16]
    fd8000002bdc:	a9425bf5 	ldp	x21, x22, [sp, #32]
    fd8000002be0:	a8c37bfd 	ldp	x29, x30, [sp], #48
    fd8000002be4:	d65f03c0 	ret
                ERROR("cant wake up cpu %d", cpu_core_id);
    fd8000002be8:	90000000 	adrp	x0, fd8000002000 <smmu_init+0x90>
    fd8000002bec:	aa1303e1 	mov	x1, x19
    fd8000002bf0:	f9460800 	ldr	x0, [x0, #3088]
    fd8000002bf4:	940026e3 	bl	fd800000c780 <console_printk>
    fd8000002bf8:	14000000 	b	fd8000002bf8 <cpu_arch_profile_init+0xa8>
    fd8000002bfc:	d503201f 	nop
    fd8000002c00:	00012348 	.word	0x00012348
    fd8000002c04:	0000fd80 	.word	0x0000fd80
    fd8000002c08:	000129b0 	.word	0x000129b0
    fd8000002c0c:	0000fd80 	.word	0x0000fd80
    fd8000002c10:	00010448 	.word	0x00010448
    fd8000002c14:	0000fd80 	.word	0x0000fd80
    fd8000002c18:	d503201f 	nop
    fd8000002c1c:	d503201f 	nop

0000fd8000002c20 <cpu_arch_profile_idle>:

void cpu_arch_profile_idle()
{
    fd8000002c20:	a9bf7bfd 	stp	x29, x30, [sp, #-16]!
    int64_t err = psci_power_down(PSCI_WAKEUP_IDLE);
    fd8000002c24:	52800040 	mov	w0, #0x2                   	// #2
{
    fd8000002c28:	910003fd 	mov	x29, sp
    int64_t err = psci_power_down(PSCI_WAKEUP_IDLE);
    fd8000002c2c:	97fffc4d 	bl	fd8000001d60 <psci_power_down>
    if (err) {
    fd8000002c30:	340000a0 	cbz	w0, fd8000002c44 <cpu_arch_profile_idle+0x24>
    fd8000002c34:	93407c02 	sxtw	x2, w0
        switch (err) {
    fd8000002c38:	b100045f 	cmn	x2, #0x1
    fd8000002c3c:	54000081 	b.ne	fd8000002c4c <cpu_arch_profile_idle+0x2c>  // b.any
            case PSCI_E_NOT_SUPPORTED:
                /**
                 * If power down is not supported let's just wait for an interrupt
                 */
                asm volatile("wfi");
    fd8000002c40:	d503207f 	wfi

    /**
     * Power down was sucessful but did not jump to requested entry point. Just return to the
     * architectural
     */
}
    fd8000002c44:	a8c17bfd 	ldp	x29, x30, [sp], #16
    fd8000002c48:	d65f03c0 	ret
                ERROR("PSCI cpu%d power down failed with error %ld", cpu()->id, err);
    fd8000002c4c:	d2dfc001 	mov	x1, #0xfe0000000000        	// #279275953455104
    fd8000002c50:	90000000 	adrp	x0, fd8000002000 <smmu_init+0x90>
    fd8000002c54:	f9463400 	ldr	x0, [x0, #3176]
    fd8000002c58:	f9400021 	ldr	x1, [x1]
    fd8000002c5c:	940026c9 	bl	fd800000c780 <console_printk>
    fd8000002c60:	14000000 	b	fd8000002c60 <cpu_arch_profile_idle+0x40>
    fd8000002c64:	d503201f 	nop
    fd8000002c68:	00010468 	.word	0x00010468
    fd8000002c6c:	0000fd80 	.word	0x0000fd80

0000fd8000002c70 <smc_call>:
    register unsigned long r0 asm(GPR(0)) = x0;
    register unsigned long r1 asm(GPR(1)) = x1;
    register unsigned long r2 asm(GPR(2)) = x2;
    register unsigned long r3 asm(GPR(3)) = x3;

    asm volatile("smc	#0\n" : "=r"(r0) : "r"(r0), "r"(r1), "r"(r2), "r"(r3));
    fd8000002c70:	d4000003 	smc	#0x0

    if (res != NULL) {
    fd8000002c74:	b4000064 	cbz	x4, fd8000002c80 <smc_call+0x10>
        res->x0 = r0;
        res->x1 = r1;
    fd8000002c78:	a9000480 	stp	x0, x1, [x4]
        res->x2 = r2;
        res->x3 = r3;
    fd8000002c7c:	a9010c82 	stp	x2, x3, [x4, #16]
    }

    return r0;
}
    fd8000002c80:	d65f03c0 	ret
    fd8000002c84:	00000000 	udf	#0

0000fd8000002c88 <memcpy>:
 *      x5: size
 *      x0: destination address
 *      x7: source address
 */
memcpy:
        mov x4, #0
    fd8000002c88:	d2800004 	mov	x4, #0x0                   	// #0
1:
        /* Copy two words */
        ldp x2, x3, [x7]
    fd8000002c8c:	a9400ce2 	ldp	x2, x3, [x7]
        stp x2, x3, [x0]
    fd8000002c90:	a9000c02 	stp	x2, x3, [x0]

        /* Increment addressess and count accordingly */
        add x7, x7, 8
    fd8000002c94:	910020e7 	add	x7, x7, #0x8
        add x0, x0, 8
    fd8000002c98:	91002000 	add	x0, x0, #0x8
        add x4, x4, 8
    fd8000002c9c:	91002084 	add	x4, x4, #0x8

        /* If count is less then size, repeat */
        cmp x4, x5
    fd8000002ca0:	eb05009f 	cmp	x4, x5
        b.le 1b
    fd8000002ca4:	54ffff4d 	b.le	fd8000002c8c <memcpy+0x4>

        /* Restore original addresses */
        sub x7, x7, x4
    fd8000002ca8:	cb0400e7 	sub	x7, x7, x4
        sub x0, x0, x4
    fd8000002cac:	cb040000 	sub	x0, x0, x4

        ret
    fd8000002cb0:	d65f03c0 	ret

0000fd8000002cb4 <switch_space>:
switch_space:
        
    /**
    * update flat maping page table entry  to feature new physical address space entry page
    */
    adr x3, _image_start
    fd8000002cb4:	10fe9a63 	adr	x3, fd8000000000 <_el2_entry>
    PTE_INDEX_ASM x4, x3, 1
    fd8000002cb8:	d35efc64 	lsr	x4, x3, #30
    fd8000002cbc:	92402084 	and	x4, x4, #0x1ff
    fd8000002cc0:	d37df084 	lsl	x4, x4, #3
    adr x5, root_l1_flat_pt
    fd8000002cc4:	100e19e5 	adr	x5, fd800001f000 <root_l1_flat_pt>
    add x3, x3, #(PTE_HYP_FLAGS | PTE_TABLE)
    fd8000002cc8:	911d1c63 	add	x3, x3, #0x747
    str x3, [x5, x4]
    fd8000002ccc:	f82468a3 	str	x3, [x5, x4]
    /**
     * Copy the stack
     */

    /* Get current CPU space stack start */
    ldr x7, =BAO_CPU_BASE
    fd8000002cd0:	580002c7 	ldr	x7, fd8000002d28 <switch_space+0x74>
    add x7, x7, #(CPU_STACK_OFF + CPU_STACK_SIZE)
    fd8000002cd4:	914008e7 	add	x7, x7, #0x2, lsl #12

    /* Calculate stack size */
    mov x8, sp
    fd8000002cd8:	910003e8 	mov	x8, sp
    sub x5, x7, x8
    fd8000002cdc:	cb0800e5 	sub	x5, x7, x8

    /* Get current CPU space current sp */
    mov x7, sp
    fd8000002ce0:	910003e7 	mov	x7, sp

    /* Get new CPU space current sp */
    add x0, x0, #(CPU_STACK_OFF + CPU_STACK_SIZE)
    fd8000002ce4:	91400800 	add	x0, x0, #0x2, lsl #12
    sub x0, x0, x5
    fd8000002ce8:	cb050000 	sub	x0, x0, x5

    /* Copy */
    mov x8, x30
    fd8000002cec:	aa1e03e8 	mov	x8, x30
    bl      memcpy
    fd8000002cf0:	97ffffe6 	bl	fd8000002c88 <memcpy>
    mov x30, x8
    fd8000002cf4:	aa0803fe 	mov	x30, x8

    /**
     * Invalidate TLB
     */
    dsb ishst
    fd8000002cf8:	d5033a9f 	dsb	ishst
    tlbi alle2
    fd8000002cfc:	d50c871f 	tlbi	alle2
    dsb ish
    fd8000002d00:	d5033b9f 	dsb	ish
    isb
    fd8000002d04:	d5033fdf 	isb
    /**
     * Update TTBR
     */

    /* Update value of TTBR0_EL2 */
	msr TTBR0_EL2, x1
    fd8000002d08:	d51c2001 	msr	ttbr0_el2, x1
    dsb ish
    fd8000002d0c:	d5033b9f 	dsb	ish
    isb
    fd8000002d10:	d5033fdf 	isb

    tlbi alle2
    fd8000002d14:	d50c871f 	tlbi	alle2
    dsb ish
    fd8000002d18:	d5033b9f 	dsb	ish
    isb
    fd8000002d1c:	d5033fdf 	isb

    ret
    fd8000002d20:	d65f03c0 	ret
	...
    fd8000002d2c:	0000fe00 	.word	0x0000fe00

0000fd8000002d30 <vmm_arch_init_tcr>:
SYSREG_GEN_ACCESSORS(id_aa64mmfr0_el1);
    fd8000002d30:	d5380701 	mrs	x1, id_aa64mmfr0_el1
    __asm__ volatile(
    fd8000002d34:	90000000 	adrp	x0, fd8000002000 <smmu_init+0x90>
    fd8000002d38:	f947cc00 	ldr	x0, [x0, #3992]
     */

    static size_t min_parange = 0b111;
    static spinlock_t lock = SPINLOCK_INITVAL;

    size_t temp_parange = sysreg_id_aa64mmfr0_el1_read() & ID_AA64MMFR0_PAR_MSK;
    fd8000002d3c:	92400c21 	and	x1, x1, #0xf
    fd8000002d40:	91001005 	add	x5, x0, #0x4
    fd8000002d44:	885ffc02 	ldaxr	w2, [x0]
    fd8000002d48:	11000443 	add	w3, w2, #0x1
    fd8000002d4c:	88047c03 	stxr	w4, w3, [x0]
    fd8000002d50:	35ffffa4 	cbnz	w4, fd8000002d44 <vmm_arch_init_tcr+0x14>
    fd8000002d54:	88dffca3 	ldar	w3, [x5]
    fd8000002d58:	6b03005f 	cmp	w2, w3
    fd8000002d5c:	54000060 	b.eq	fd8000002d68 <vmm_arch_init_tcr+0x38>  // b.none
    fd8000002d60:	d503205f 	wfe
    fd8000002d64:	17fffffc 	b	fd8000002d54 <vmm_arch_init_tcr+0x24>
    spin_lock(&lock);
    if (temp_parange < min_parange) {
    fd8000002d68:	90000002 	adrp	x2, fd8000002000 <smmu_init+0x90>
    fd8000002d6c:	f947d043 	ldr	x3, [x2, #4000]
    fd8000002d70:	f9400062 	ldr	x2, [x3]
    fd8000002d74:	eb01005f 	cmp	x2, x1
    fd8000002d78:	54000049 	b.ls	fd8000002d80 <vmm_arch_init_tcr+0x50>  // b.plast
        min_parange = temp_parange;
    fd8000002d7c:	f9000061 	str	x1, [x3]
    __asm__ volatile(
    fd8000002d80:	91001001 	add	x1, x0, #0x4
    fd8000002d84:	b9400020 	ldr	w0, [x1]
    fd8000002d88:	11000400 	add	w0, w0, #0x1
    fd8000002d8c:	889ffc20 	stlr	w0, [x1]
    fd8000002d90:	d5033b9f 	dsb	ish
    fd8000002d94:	d503209f 	sev
{
    // TODO: no fence/barrier needed in this function?

    size_t next_count = 0;

    while (!token->ready) { }
    fd8000002d98:	90000000 	adrp	x0, fd8000002000 <smmu_init+0x90>
    fd8000002d9c:	f947d400 	ldr	x0, [x0, #4008]
    fd8000002da0:	39404001 	ldrb	w1, [x0, #16]
    fd8000002da4:	3607ffe1 	tbz	w1, #0, fd8000002da0 <vmm_arch_init_tcr+0x70>
    __asm__ volatile(
    fd8000002da8:	91001005 	add	x5, x0, #0x4
    fd8000002dac:	885ffc01 	ldaxr	w1, [x0]
    fd8000002db0:	11000422 	add	w2, w1, #0x1
    fd8000002db4:	88047c02 	stxr	w4, w2, [x0]
    fd8000002db8:	35ffffa4 	cbnz	w4, fd8000002dac <vmm_arch_init_tcr+0x7c>
    fd8000002dbc:	88dffca2 	ldar	w2, [x5]
    fd8000002dc0:	6b02003f 	cmp	w1, w2
    fd8000002dc4:	54000060 	b.eq	fd8000002dd0 <vmm_arch_init_tcr+0xa0>  // b.none
    fd8000002dc8:	d503205f 	wfe
    fd8000002dcc:	17fffffc 	b	fd8000002dbc <vmm_arch_init_tcr+0x8c>

    spin_lock(&token->lock);
    token->count++;
    fd8000002dd0:	f9400c01 	ldr	x1, [x0, #24]
    fd8000002dd4:	91000421 	add	x1, x1, #0x1
    fd8000002dd8:	f9000c01 	str	x1, [x0, #24]
    next_count = ALIGN(token->count, token->n);
    fd8000002ddc:	f9400c02 	ldr	x2, [x0, #24]
    fd8000002de0:	f9400401 	ldr	x1, [x0, #8]
    fd8000002de4:	f9400404 	ldr	x4, [x0, #8]
    fd8000002de8:	8b010042 	add	x2, x2, x1
    fd8000002dec:	d1000442 	sub	x2, x2, #0x1
    fd8000002df0:	f9400401 	ldr	x1, [x0, #8]
    fd8000002df4:	9ac40842 	udiv	x2, x2, x4
    fd8000002df8:	9b017c42 	mul	x2, x2, x1
    __asm__ volatile(
    fd8000002dfc:	b94000a1 	ldr	w1, [x5]
    fd8000002e00:	11000421 	add	w1, w1, #0x1
    fd8000002e04:	889ffca1 	stlr	w1, [x5]
    fd8000002e08:	d5033b9f 	dsb	ish
    fd8000002e0c:	d503209f 	sev
    spin_unlock(&token->lock);

    while (token->count < next_count) { }
    fd8000002e10:	f9400c01 	ldr	x1, [x0, #24]
    fd8000002e14:	eb01005f 	cmp	x2, x1
    fd8000002e18:	54ffffc8 	b.hi	fd8000002e10 <vmm_arch_init_tcr+0xe0>  // b.pmore
    }
    spin_unlock(&lock);

    cpu_sync_barrier(&cpu_glb_sync);

    if (cpu()->id == CPU_MASTER) {
    fd8000002e1c:	90000001 	adrp	x1, fd8000002000 <smmu_init+0x90>
    fd8000002e20:	f947d821 	ldr	x1, [x1, #4016]
    fd8000002e24:	d2dfc002 	mov	x2, #0xfe0000000000        	// #279275953455104
    fd8000002e28:	f9400042 	ldr	x2, [x2]
    fd8000002e2c:	f9400021 	ldr	x1, [x1]
    fd8000002e30:	eb01005f 	cmp	x2, x1
        parange = min_parange;
    fd8000002e34:	90000001 	adrp	x1, fd8000002000 <smmu_init+0x90>
    fd8000002e38:	f947dc26 	ldr	x6, [x1, #4024]
        if (parange_table[parange] < 44) {
    fd8000002e3c:	90000001 	adrp	x1, fd8000002000 <smmu_init+0x90>
    fd8000002e40:	f947e025 	ldr	x5, [x1, #4032]
    if (cpu()->id == CPU_MASTER) {
    fd8000002e44:	54000600 	b.eq	fd8000002f04 <vmm_arch_init_tcr+0x1d4>  // b.none
    while (!token->ready) { }
    fd8000002e48:	39404001 	ldrb	w1, [x0, #16]
    fd8000002e4c:	3607ffe1 	tbz	w1, #0, fd8000002e48 <vmm_arch_init_tcr+0x118>
    __asm__ volatile(
    fd8000002e50:	91001004 	add	x4, x0, #0x4
    fd8000002e54:	885ffc01 	ldaxr	w1, [x0]
    fd8000002e58:	11000422 	add	w2, w1, #0x1
    fd8000002e5c:	88037c02 	stxr	w3, w2, [x0]
    fd8000002e60:	35ffffa3 	cbnz	w3, fd8000002e54 <vmm_arch_init_tcr+0x124>
    fd8000002e64:	88dffc82 	ldar	w2, [x4]
    fd8000002e68:	6b02003f 	cmp	w1, w2
    fd8000002e6c:	54000060 	b.eq	fd8000002e78 <vmm_arch_init_tcr+0x148>  // b.none
    fd8000002e70:	d503205f 	wfe
    fd8000002e74:	17fffffc 	b	fd8000002e64 <vmm_arch_init_tcr+0x134>
    token->count++;
    fd8000002e78:	f9400c01 	ldr	x1, [x0, #24]
    fd8000002e7c:	91000421 	add	x1, x1, #0x1
    fd8000002e80:	f9000c01 	str	x1, [x0, #24]
    next_count = ALIGN(token->count, token->n);
    fd8000002e84:	f9400c02 	ldr	x2, [x0, #24]
    fd8000002e88:	f9400401 	ldr	x1, [x0, #8]
    fd8000002e8c:	f9400403 	ldr	x3, [x0, #8]
    fd8000002e90:	8b010042 	add	x2, x2, x1
    fd8000002e94:	d1000442 	sub	x2, x2, #0x1
    fd8000002e98:	f9400401 	ldr	x1, [x0, #8]
    fd8000002e9c:	9ac30842 	udiv	x2, x2, x3
    fd8000002ea0:	9b017c42 	mul	x2, x2, x1
    __asm__ volatile(
    fd8000002ea4:	b9400081 	ldr	w1, [x4]
    fd8000002ea8:	11000421 	add	w1, w1, #0x1
    fd8000002eac:	889ffc81 	stlr	w1, [x4]
    fd8000002eb0:	d5033b9f 	dsb	ish
    fd8000002eb4:	d503209f 	sev
    while (token->count < next_count) { }
    fd8000002eb8:	f9400c01 	ldr	x1, [x0, #24]
    fd8000002ebc:	eb01005f 	cmp	x2, x1
    fd8000002ec0:	54ffffc8 	b.hi	fd8000002eb8 <vmm_arch_init_tcr+0x188>  // b.pmore
        }
    }

    cpu_sync_barrier(&cpu_glb_sync);

    uint64_t vtcr = VTCR_RES1 | ((parange << VTCR_PS_OFF) & VTCR_PS_MSK) | VTCR_TG0_4K |
    fd8000002ec4:	f94000c0 	ldr	x0, [x6]
        VTCR_ORGN0_WB_RA_WA | VTCR_IRGN0_WB_RA_WA | VTCR_T0SZ(64 - parange_table[parange]) |
        VTCR_SH0_IS | ((parange_table[parange] < 44) ? VTCR_SL0_12 : VTCR_SL0_01);
    fd8000002ec8:	d2800804 	mov	x4, #0x40                  	// #64
    fd8000002ecc:	d2801002 	mov	x2, #0x80                  	// #128
    fd8000002ed0:	d286a003 	mov	x3, #0x3500                	// #13568
    fd8000002ed4:	f2b00003 	movk	x3, #0x8000, lsl #16
        VTCR_ORGN0_WB_RA_WA | VTCR_IRGN0_WB_RA_WA | VTCR_T0SZ(64 - parange_table[parange]) |
    fd8000002ed8:	f86078a1 	ldr	x1, [x5, x0, lsl #3]
    uint64_t vtcr = VTCR_RES1 | ((parange << VTCR_PS_OFF) & VTCR_PS_MSK) | VTCR_TG0_4K |
    fd8000002edc:	d3700800 	ubfiz	x0, x0, #16, #3
        VTCR_SH0_IS | ((parange_table[parange] < 44) ? VTCR_SL0_12 : VTCR_SL0_01);
    fd8000002ee0:	f100ac3f 	cmp	x1, #0x2b
    fd8000002ee4:	cb0103e1 	neg	x1, x1
    fd8000002ee8:	9a848042 	csel	x2, x2, x4, hi	// hi = pmore
    fd8000002eec:	92401021 	and	x1, x1, #0x1f
    fd8000002ef0:	aa030021 	orr	x1, x1, x3
    uint64_t vtcr = VTCR_RES1 | ((parange << VTCR_PS_OFF) & VTCR_PS_MSK) | VTCR_TG0_4K |
    fd8000002ef4:	aa020000 	orr	x0, x0, x2
    fd8000002ef8:	aa010000 	orr	x0, x0, x1
SYSREG_GEN_ACCESSORS(vtcr_el2);
    fd8000002efc:	d51c2140 	msr	vtcr_el2, x0

    sysreg_vtcr_el2_write(vtcr);
}
    fd8000002f00:	d65f03c0 	ret
        parange = min_parange;
    fd8000002f04:	f9400061 	ldr	x1, [x3]
    fd8000002f08:	f90000c1 	str	x1, [x6]
        if (parange_table[parange] < 44) {
    fd8000002f0c:	f86178a1 	ldr	x1, [x5, x1, lsl #3]
    fd8000002f10:	f100ac3f 	cmp	x1, #0x2b
    fd8000002f14:	54fff9a8 	b.hi	fd8000002e48 <vmm_arch_init_tcr+0x118>  // b.pmore
            for (size_t i = 0; i < vm_pt_dscr->lvls - 1; i++) {
    fd8000002f18:	90000002 	adrp	x2, fd8000002000 <smmu_init+0x90>
    fd8000002f1c:	f947e442 	ldr	x2, [x2, #4040]
    fd8000002f20:	f9400044 	ldr	x4, [x2]
    fd8000002f24:	f9400082 	ldr	x2, [x4]
            vm_pt_dscr->lvl_wdt[0] = parange_table[parange];
    fd8000002f28:	f9400887 	ldr	x7, [x4, #16]
            for (size_t i = 0; i < vm_pt_dscr->lvls - 1; i++) {
    fd8000002f2c:	f100045f 	cmp	x2, #0x1
    fd8000002f30:	540002a0 	b.eq	fd8000002f84 <vmm_arch_init_tcr+0x254>  // b.none
                vm_pt_dscr->lvl_off[i] = vm_pt_dscr->lvl_off[i + 1];
    fd8000002f34:	f9400489 	ldr	x9, [x4, #8]
    fd8000002f38:	d10020ec 	sub	x12, x7, #0x8
                vm_pt_dscr->lvl_term[i] = vm_pt_dscr->lvl_term[i + 1];
    fd8000002f3c:	f9400c88 	ldr	x8, [x4, #24]
    fd8000002f40:	d100212b 	sub	x11, x9, #0x8
            for (size_t i = 0; i < vm_pt_dscr->lvls - 1; i++) {
    fd8000002f44:	d2800001 	mov	x1, #0x0                   	// #0
    fd8000002f48:	d100050a 	sub	x10, x8, #0x1
    fd8000002f4c:	d503201f 	nop
                vm_pt_dscr->lvl_wdt[i] = vm_pt_dscr->lvl_wdt[i + 1];
    fd8000002f50:	91000421 	add	x1, x1, #0x1
    fd8000002f54:	f86178e2 	ldr	x2, [x7, x1, lsl #3]
    fd8000002f58:	f8217982 	str	x2, [x12, x1, lsl #3]
                vm_pt_dscr->lvl_term[i] = vm_pt_dscr->lvl_term[i + 1];
    fd8000002f5c:	38616902 	ldrb	w2, [x8, x1]
                vm_pt_dscr->lvl_off[i] = vm_pt_dscr->lvl_off[i + 1];
    fd8000002f60:	f8617923 	ldr	x3, [x9, x1, lsl #3]
    fd8000002f64:	f8217963 	str	x3, [x11, x1, lsl #3]
                vm_pt_dscr->lvl_term[i] = vm_pt_dscr->lvl_term[i + 1];
    fd8000002f68:	38216942 	strb	w2, [x10, x1]
            for (size_t i = 0; i < vm_pt_dscr->lvls - 1; i++) {
    fd8000002f6c:	f9400082 	ldr	x2, [x4]
    fd8000002f70:	d1000442 	sub	x2, x2, #0x1
    fd8000002f74:	eb02003f 	cmp	x1, x2
    fd8000002f78:	54fffec3 	b.cc	fd8000002f50 <vmm_arch_init_tcr+0x220>  // b.lo, b.ul, b.last
            vm_pt_dscr->lvl_wdt[0] = parange_table[parange];
    fd8000002f7c:	f94000c1 	ldr	x1, [x6]
    fd8000002f80:	f86178a1 	ldr	x1, [x5, x1, lsl #3]
    fd8000002f84:	f90000e1 	str	x1, [x7]
            vm_pt_dscr->lvls = vm_pt_dscr->lvls - 1;
    fd8000002f88:	f9400081 	ldr	x1, [x4]
    fd8000002f8c:	d1000421 	sub	x1, x1, #0x1
    fd8000002f90:	f9000081 	str	x1, [x4]
    while (!token->ready) { }
    fd8000002f94:	17ffffad 	b	fd8000002e48 <vmm_arch_init_tcr+0x118>
    fd8000002f98:	00013068 	.word	0x00013068
    fd8000002f9c:	0000fd80 	.word	0x0000fd80
    fd8000002fa0:	00012140 	.word	0x00012140
    fd8000002fa4:	0000fd80 	.word	0x0000fd80
    fd8000002fa8:	00016000 	.word	0x00016000
    fd8000002fac:	0000fd80 	.word	0x0000fd80
    fd8000002fb0:	00012348 	.word	0x00012348
    fd8000002fb4:	0000fd80 	.word	0x0000fd80
    fd8000002fb8:	00012120 	.word	0x00012120
    fd8000002fbc:	0000fd80 	.word	0x0000fd80
    fd8000002fc0:	00012020 	.word	0x00012020
    fd8000002fc4:	0000fd80 	.word	0x0000fd80
    fd8000002fc8:	00012010 	.word	0x00012010
    fd8000002fcc:	0000fd80 	.word	0x0000fd80

0000fd8000002fd0 <cache_arch_enumerate>:
#include <fences.h>
#include <bit.h>
#include <platform.h>

void cache_arch_enumerate(struct cache* dscrp)
{
    fd8000002fd0:	a9be7bfd 	stp	x29, x30, [sp, #-32]!
    fd8000002fd4:	910003fd 	mov	x29, sp
    if (platform.cache.lvls != 0) {
    fd8000002fd8:	b0000001 	adrp	x1, fd8000003000 <cache_arch_enumerate+0x30>
    fd8000002fdc:	f940bc21 	ldr	x1, [x1, #376]
    fd8000002fe0:	f9401822 	ldr	x2, [x1, #48]
{
    fd8000002fe4:	f9000bf3 	str	x19, [sp, #16]
    fd8000002fe8:	aa0003f3 	mov	x19, x0
    if (platform.cache.lvls != 0) {
    fd8000002fec:	b4000082 	cbz	x2, fd8000002ffc <cache_arch_enumerate+0x2c>
        /**
         * No need to probe cache registers, cache topology is described in the platform
         * descrption.
         */
        *dscrp = platform.cache;
    fd8000002ff0:	9100c021 	add	x1, x1, #0x30
    fd8000002ff4:	d2803e02 	mov	x2, #0x1f0                 	// #496
    fd8000002ff8:	9400183e 	bl	fd80000090f0 <memcpy>

    uint64_t clidr = 0;
    uint64_t temp = 0;
    bool first_unified = false;

    dscrp->lvls = 0;
    fd8000002ffc:	f900027f 	str	xzr, [x19]
SYSREG_GEN_ACCESSORS(clidr_el1);
    fd8000003000:	d5390022 	mrs	x2, clidr_el1

    clidr = sysreg_clidr_el1_read();
    for (size_t i = 0; i < CLIDR_CTYPE_NUM; i++) {
        if ((temp = bit64_extract(clidr, i * CLIDR_CTYPE_LEN, CLIDR_CTYPE_LEN)) != 0) {
    fd8000003004:	52800060 	mov	w0, #0x3                   	// #3
    fd8000003008:	f2400841 	ands	x1, x2, #0x7
    for (size_t i = 0; i < CLIDR_CTYPE_NUM; i++) {
    fd800000300c:	d2800003 	mov	x3, #0x0                   	// #0
        if ((temp = bit64_extract(clidr, i * CLIDR_CTYPE_LEN, CLIDR_CTYPE_LEN)) != 0) {
    fd8000003010:	54000780 	b.eq	fd8000003100 <cache_arch_enumerate+0x130>  // b.none
                    break;
                case CLIDR_CTYPE_DO:
                    dscrp->type[i] = DATA;
                    break;
                case CLIDR_CTYPE_SP:
                    dscrp->type[i] = SEPARATE;
    fd8000003014:	91003264 	add	x4, x19, #0xc
                    dscrp->type[i] = INSTRUCTION;
    fd8000003018:	2a0003e5 	mov	w5, w0
                    dscrp->type[i] = SEPARATE;
    fd800000301c:	52800027 	mov	w7, #0x1                   	// #1
                    dscrp->type[i] = DATA;
    fd8000003020:	52800046 	mov	w6, #0x2                   	// #2
    fd8000003024:	1400000a 	b	fd800000304c <cache_arch_enumerate+0x7c>
            switch (temp) {
    fd8000003028:	f100043f 	cmp	x1, #0x1
    fd800000302c:	54000740 	b.eq	fd8000003114 <cache_arch_enumerate+0x144>  // b.none
                    dscrp->type[i] = DATA;
    fd8000003030:	b8237886 	str	w6, [x4, x3, lsl #2]
    for (size_t i = 0; i < CLIDR_CTYPE_NUM; i++) {
    fd8000003034:	f1001c7f 	cmp	x3, #0x7
    fd8000003038:	540001e0 	b.eq	fd8000003074 <cache_arch_enumerate+0xa4>  // b.none
BIT_OPS_GEN(bit64, uint64_t, UINT64_C(1), BIT64_MASK);
    fd800000303c:	9ac02441 	lsr	x1, x2, x0
        if ((temp = bit64_extract(clidr, i * CLIDR_CTYPE_LEN, CLIDR_CTYPE_LEN)) != 0) {
    fd8000003040:	11000c00 	add	w0, w0, #0x3
    fd8000003044:	f2400821 	ands	x1, x1, #0x7
    fd8000003048:	54000180 	b.eq	fd8000003078 <cache_arch_enumerate+0xa8>  // b.none
            dscrp->lvls++;
    fd800000304c:	aa0303e8 	mov	x8, x3
            switch (temp) {
    fd8000003050:	f1000c3f 	cmp	x1, #0x3
            dscrp->lvls++;
    fd8000003054:	91000463 	add	x3, x3, #0x1
            switch (temp) {
    fd8000003058:	540005a0 	b.eq	fd800000310c <cache_arch_enumerate+0x13c>  // b.none
    fd800000305c:	54fffe69 	b.ls	fd8000003028 <cache_arch_enumerate+0x58>  // b.plast
    fd8000003060:	f100103f 	cmp	x1, #0x4
    fd8000003064:	54fffe81 	b.ne	fd8000003034 <cache_arch_enumerate+0x64>  // b.any
                    break;
                case CLIDR_CTYPE_UN:
                    dscrp->type[i] = UNIFIED;
    fd8000003068:	b823789f 	str	wzr, [x4, x3, lsl #2]
    for (size_t i = 0; i < CLIDR_CTYPE_NUM; i++) {
    fd800000306c:	f1001c7f 	cmp	x3, #0x7
    fd8000003070:	54fffe61 	b.ne	fd800000303c <cache_arch_enumerate+0x6c>  // b.any
    fd8000003074:	d28000c8 	mov	x8, #0x6                   	// #6
    fd8000003078:	aa1303e2 	mov	x2, x19
    fd800000307c:	9100c265 	add	x5, x19, #0x30
    fd8000003080:	9100426a 	add	x10, x19, #0x10
    fd8000003084:	d2800001 	mov	x1, #0x0                   	// #0
    fd8000003088:	5280000b 	mov	w11, #0x0                   	// #0
            csselr = bit64_set(csselr, CSSELR_IND_BIT);
            sysreg_csselr_el1_write(csselr);
            ccsidr = sysreg_ccsidr_el1_read();

            dscrp->line_size[lvl][1] = 1UL
                << (bit64_extract(ccsidr, CCSIDR_LINESIZE_OFF, CCSIDR_LINESIZE_LEN) + 4);
    fd800000308c:	d2800029 	mov	x9, #0x1                   	// #1
    fd8000003090:	f8070443 	str	x3, [x2], #112
    fd8000003094:	d503201f 	nop
        if (dscrp->type[lvl] == UNIFIED && first_unified == false) {
    fd8000003098:	b8617947 	ldr	w7, [x10, x1, lsl #2]
    fd800000309c:	8b010026 	add	x6, x1, x1
    fd80000030a0:	350003e7 	cbnz	w7, fd800000311c <cache_arch_enumerate+0x14c>
    fd80000030a4:	3500004b 	cbnz	w11, fd80000030ac <cache_arch_enumerate+0xdc>
            dscrp->min_shared_lvl = lvl;
    fd80000030a8:	f9000661 	str	x1, [x19, #8]
        if (dscrp->type[lvl] != INSTRUCTION) {
    fd80000030ac:	5280002b 	mov	w11, #0x1                   	// #1
SYSREG_GEN_ACCESSORS(csselr_el1);
    fd80000030b0:	d51a0006 	msr	csselr_el1, x6
SYSREG_GEN_ACCESSORS(ccsidr_el1);
    fd80000030b4:	d5390003 	mrs	x3, ccsidr_el1
    fd80000030b8:	92400864 	and	x4, x3, #0x7
    fd80000030bc:	d3433060 	ubfx	x0, x3, #3, #10
                << (bit64_extract(ccsidr, CCSIDR_LINESIZE_OFF, CCSIDR_LINESIZE_LEN) + 4);
    fd80000030c0:	11001084 	add	w4, w4, #0x4
    fd80000030c4:	d34d6c63 	ubfx	x3, x3, #13, #15
                bit64_extract(ccsidr, CCSIDR_ASSOCIATIVITY_OFF, CCSIDR_ASSOCIATIVITY_LEN) + 1;
    fd80000030c8:	91000400 	add	x0, x0, #0x1
                bit64_extract(ccsidr, CCSIDR_NUMSETS_OFF, CCSIDR_NUMSETS_LEN) + 1;
    fd80000030cc:	91000463 	add	x3, x3, #0x1
                << (bit64_extract(ccsidr, CCSIDR_LINESIZE_OFF, CCSIDR_LINESIZE_LEN) + 4);
    fd80000030d0:	9ac42124 	lsl	x4, x9, x4
            dscrp->line_size[lvl][0] = 1UL
    fd80000030d4:	f9000044 	str	x4, [x2]
            dscrp->assoc[lvl][0] =
    fd80000030d8:	f9004040 	str	x0, [x2, #128]
        if (dscrp->type[lvl] == SEPARATE || dscrp->type[lvl] == INSTRUCTION) {
    fd80000030dc:	710004ff 	cmp	w7, #0x1
            dscrp->numset[lvl][0] =
    fd80000030e0:	f9008043 	str	x3, [x2, #256]
            dscrp->indexed[lvl][0] = PIPT;
    fd80000030e4:	b90000bf 	str	wzr, [x5]
        if (dscrp->type[lvl] == SEPARATE || dscrp->type[lvl] == INSTRUCTION) {
    fd80000030e8:	540001e0 	b.eq	fd8000003124 <cache_arch_enumerate+0x154>  // b.none
    for (size_t lvl = 0; lvl < dscrp->lvls; lvl++) {
    fd80000030ec:	eb08003f 	cmp	x1, x8
    fd80000030f0:	91004042 	add	x2, x2, #0x10
    fd80000030f4:	910020a5 	add	x5, x5, #0x8
    fd80000030f8:	91000421 	add	x1, x1, #0x1
    fd80000030fc:	54fffce1 	b.ne	fd8000003098 <cache_arch_enumerate+0xc8>  // b.any
            } else {
                dscrp->indexed[lvl][1] = VIPT;
            }
        }
    }
}
    fd8000003100:	f9400bf3 	ldr	x19, [sp, #16]
    fd8000003104:	a8c27bfd 	ldp	x29, x30, [sp], #32
    fd8000003108:	d65f03c0 	ret
                    dscrp->type[i] = SEPARATE;
    fd800000310c:	b8237887 	str	w7, [x4, x3, lsl #2]
                    break;
    fd8000003110:	17ffffc9 	b	fd8000003034 <cache_arch_enumerate+0x64>
                    dscrp->type[i] = INSTRUCTION;
    fd8000003114:	b8237885 	str	w5, [x4, x3, lsl #2]
                    break;
    fd8000003118:	17ffffc7 	b	fd8000003034 <cache_arch_enumerate+0x64>
        if (dscrp->type[lvl] != INSTRUCTION) {
    fd800000311c:	71000cff 	cmp	w7, #0x3
    fd8000003120:	54fffc81 	b.ne	fd80000030b0 <cache_arch_enumerate+0xe0>  // b.any
    fd8000003124:	b24000c6 	orr	x6, x6, #0x1
SYSREG_GEN_ACCESSORS(csselr_el1);
    fd8000003128:	d51a0006 	msr	csselr_el1, x6
SYSREG_GEN_ACCESSORS(ccsidr_el1);
    fd800000312c:	d5390003 	mrs	x3, ccsidr_el1
    fd8000003130:	92400864 	and	x4, x3, #0x7
    fd8000003134:	d3433060 	ubfx	x0, x3, #3, #10
                << (bit64_extract(ccsidr, CCSIDR_LINESIZE_OFF, CCSIDR_LINESIZE_LEN) + 4);
    fd8000003138:	11001084 	add	w4, w4, #0x4
    fd800000313c:	d34d6c63 	ubfx	x3, x3, #13, #15
                bit64_extract(ccsidr, CCSIDR_ASSOCIATIVITY_OFF, CCSIDR_ASSOCIATIVITY_LEN) + 1;
    fd8000003140:	91000400 	add	x0, x0, #0x1
                bit64_extract(ccsidr, CCSIDR_NUMSETS_OFF, CCSIDR_NUMSETS_LEN) + 1;
    fd8000003144:	91000463 	add	x3, x3, #0x1
                << (bit64_extract(ccsidr, CCSIDR_LINESIZE_OFF, CCSIDR_LINESIZE_LEN) + 4);
    fd8000003148:	9ac42124 	lsl	x4, x9, x4
            dscrp->line_size[lvl][1] = 1UL
    fd800000314c:	f9000444 	str	x4, [x2, #8]
            dscrp->assoc[lvl][1] =
    fd8000003150:	f9004440 	str	x0, [x2, #136]
            dscrp->numset[lvl][1] =
    fd8000003154:	f9008443 	str	x3, [x2, #264]
SYSREG_GEN_ACCESSORS(ctr_el0);
    fd8000003158:	d53b0020 	mrs	x0, ctr_el0
            if ((ctr & BIT64_MASK(CTR_L1LP_OFF, CTR_L1LP_LEN)) == CTR_L1LP_PIPT) {
    fd800000315c:	92720400 	and	x0, x0, #0xc000
    fd8000003160:	f140301f 	cmp	x0, #0xc, lsl #12
    fd8000003164:	54000060 	b.eq	fd8000003170 <cache_arch_enumerate+0x1a0>  // b.none
                dscrp->indexed[lvl][1] = VIPT;
    fd8000003168:	b90004a9 	str	w9, [x5, #4]
    fd800000316c:	17ffffe0 	b	fd80000030ec <cache_arch_enumerate+0x11c>
                dscrp->indexed[lvl][1] = PIPT;
    fd8000003170:	b90004bf 	str	wzr, [x5, #4]
    fd8000003174:	17ffffde 	b	fd80000030ec <cache_arch_enumerate+0x11c>
    fd8000003178:	000129b0 	.word	0x000129b0
    fd800000317c:	0000fd80 	.word	0x0000fd80

0000fd8000003180 <cache_flush_range>:
    fd8000003180:	d53b0023 	mrs	x3, ctr_el0
    fd8000003184:	d3504c63 	ubfx	x3, x3, #16, #4
{
    vaddr_t cache_addr = base;
    uint64_t ctr = sysreg_ctr_el0_read();
    size_t min_line_size = 1UL << bit64_extract(ctr, CTR_DMINLINE_OFF, CTR_DMINLINE_LEN);

    while (cache_addr < (base + size)) {
    fd8000003188:	8b010001 	add	x1, x0, x1
    size_t min_line_size = 1UL << bit64_extract(ctr, CTR_DMINLINE_OFF, CTR_DMINLINE_LEN);
    fd800000318c:	d2800022 	mov	x2, #0x1                   	// #1
    while (cache_addr < (base + size)) {
    fd8000003190:	eb01001f 	cmp	x0, x1
    size_t min_line_size = 1UL << bit64_extract(ctr, CTR_DMINLINE_OFF, CTR_DMINLINE_LEN);
    fd8000003194:	9ac32042 	lsl	x2, x2, x3
    while (cache_addr < (base + size)) {
    fd8000003198:	540000c2 	b.cs	fd80000031b0 <cache_flush_range+0x30>  // b.hs, b.nlast
    fd800000319c:	d503201f 	nop
    asm volatile("dc civac, %0\n\t" ::"r"(cache_addr));
    fd80000031a0:	d50b7e20 	dc	civac, x0
        arm_dc_civac(cache_addr);
        cache_addr += min_line_size;
    fd80000031a4:	8b020000 	add	x0, x0, x2
    while (cache_addr < (base + size)) {
    fd80000031a8:	eb01001f 	cmp	x0, x1
    fd80000031ac:	54ffffa3 	b.cc	fd80000031a0 <cache_flush_range+0x20>  // b.lo, b.ul, b.last
    }

    DMB(ish);
    fd80000031b0:	d5033bbf 	dmb	ish
}
    fd80000031b4:	d65f03c0 	ret
	...

0000fd80000031c0 <interrupts_arch_init>:
#ifndef GIC_VERSION
#error "GIC_VERSION not defined for this platform"
#endif

void interrupts_arch_init()
{
    fd80000031c0:	a9bf7bfd 	stp	x29, x30, [sp, #-16]!
    fd80000031c4:	910003fd 	mov	x29, sp
    gic_init();
    fd80000031c8:	940002ca 	bl	fd8000003cf0 <gic_init>
    interrupts_cpu_enable(platform.arch.gic.maintenance_id, true);
    fd80000031cc:	90000000 	adrp	x0, fd8000003000 <cache_arch_enumerate+0x30>
    fd80000031d0:	f940f400 	ldr	x0, [x0, #488]
    fd80000031d4:	52800021 	mov	w1, #0x1                   	// #1
}
    fd80000031d8:	a8c17bfd 	ldp	x29, x30, [sp], #16
    interrupts_cpu_enable(platform.arch.gic.maintenance_id, true);
    fd80000031dc:	b9425000 	ldr	w0, [x0, #592]
    fd80000031e0:	14001e88 	b	fd800000ac00 <interrupts_cpu_enable>
    fd80000031e4:	d503201f 	nop
    fd80000031e8:	000129b0 	.word	0x000129b0
    fd80000031ec:	0000fd80 	.word	0x0000fd80

0000fd80000031f0 <interrupts_arch_ipi_send>:

void interrupts_arch_ipi_send(cpuid_t target_cpu, irqid_t ipi_id)
{
    if (ipi_id < GIC_MAX_SGIS) {
    fd80000031f0:	71003c3f 	cmp	w1, #0xf
    fd80000031f4:	54000049 	b.ls	fd80000031fc <interrupts_arch_ipi_send+0xc>  // b.plast
        gic_send_sgi(target_cpu, ipi_id);
    }
}
    fd80000031f8:	d65f03c0 	ret
        gic_send_sgi(target_cpu, ipi_id);
    fd80000031fc:	140016f1 	b	fd8000008dc0 <gic_send_sgi>

0000fd8000003200 <interrupts_arch_enable>:

void interrupts_arch_enable(irqid_t int_id, bool en)
{
    fd8000003200:	a9be7bfd 	stp	x29, x30, [sp, #-32]!
    fd8000003204:	910003fd 	mov	x29, sp
    fd8000003208:	f9000bf3 	str	x19, [sp, #16]
    fd800000320c:	2a0003f3 	mov	w19, w0
    gic_set_enable(int_id, en);
    fd8000003210:	94001750 	bl	fd8000008f50 <gic_set_enable>
    gic_set_prio(int_id, 0x01);
    fd8000003214:	2a1303e0 	mov	w0, w19
    fd8000003218:	52800021 	mov	w1, #0x1                   	// #1
    fd800000321c:	940016fd 	bl	fd8000008e10 <gic_set_prio>
    if (GIC_VERSION == GICV2) {
        gicd_set_trgt(int_id, 1 << cpu()->id);
    } else {
        gicd_set_route(int_id, cpu()->arch.mpidr);
    fd8000003220:	2a1303e0 	mov	w0, w19
    fd8000003224:	d2dfc001 	mov	x1, #0xfe0000000000        	// #279275953455104
    }
}
    fd8000003228:	f9400bf3 	ldr	x19, [sp, #16]
    fd800000322c:	a8c27bfd 	ldp	x29, x30, [sp], #32
        gicd_set_route(int_id, cpu()->arch.mpidr);
    fd8000003230:	f9417821 	ldr	x1, [x1, #752]
    fd8000003234:	140016bf 	b	fd8000008d30 <gicd_set_route>
    fd8000003238:	d503201f 	nop
    fd800000323c:	d503201f 	nop

0000fd8000003240 <interrupts_arch_check>:

bool interrupts_arch_check(irqid_t int_id)
{
    return gic_get_pend(int_id);
    fd8000003240:	14001714 	b	fd8000008e90 <gic_get_pend>
    fd8000003244:	d503201f 	nop
    fd8000003248:	d503201f 	nop
    fd800000324c:	d503201f 	nop

0000fd8000003250 <interrupts_arch_conflict>:
    fd8000003250:	53057c23 	lsr	w3, w1, #5
    fd8000003254:	52800022 	mov	w2, #0x1                   	// #1
}

inline bool interrupts_arch_conflict(bitmap_t* interrupt_bitmap, irqid_t int_id)
{
    return (bitmap_get(interrupt_bitmap, int_id) && int_id > GIC_CPU_PRIV);
    fd8000003258:	7100803f 	cmp	w1, #0x20
    fd800000325c:	1ac12041 	lsl	w1, w2, w1
    fd8000003260:	b8637800 	ldr	w0, [x0, x3, lsl #2]
    fd8000003264:	0a000021 	and	w1, w1, w0
    fd8000003268:	7a408824 	ccmp	w1, #0x0, #0x4, hi	// hi = pmore
}
    fd800000326c:	1a9f07e0 	cset	w0, ne	// ne = any
    fd8000003270:	d65f03c0 	ret
    fd8000003274:	d503201f 	nop
    fd8000003278:	d503201f 	nop
    fd800000327c:	d503201f 	nop

0000fd8000003280 <interrupts_arch_clear>:

void interrupts_arch_clear(irqid_t int_id)
{
    fd8000003280:	a9be7bfd 	stp	x29, x30, [sp, #-32]!
    gic_set_act(int_id, false);
    fd8000003284:	52800001 	mov	w1, #0x0                   	// #0
{
    fd8000003288:	910003fd 	mov	x29, sp
    fd800000328c:	f9000bf3 	str	x19, [sp, #16]
    fd8000003290:	2a0003f3 	mov	w19, w0
    gic_set_act(int_id, false);
    fd8000003294:	94001713 	bl	fd8000008ee0 <gic_set_act>
    gic_set_pend(int_id, false);
    fd8000003298:	2a1303e0 	mov	w0, w19
    fd800000329c:	52800001 	mov	w1, #0x0                   	// #0
}
    fd80000032a0:	f9400bf3 	ldr	x19, [sp, #16]
    fd80000032a4:	a8c27bfd 	ldp	x29, x30, [sp], #32
    gic_set_pend(int_id, false);
    fd80000032a8:	140016f2 	b	fd8000008e70 <gic_set_pend>
    fd80000032ac:	d503201f 	nop

0000fd80000032b0 <interrupts_arch_vm_assign>:

void interrupts_arch_vm_assign(struct vm* vm, irqid_t id)
{
    vgic_set_hw(vm, id);
    fd80000032b0:	14000ee8 	b	fd8000006e50 <vgic_set_hw>
	...

0000fd80000032c0 <vm_arch_init>:
#include <fences.h>
#include <string.h>
#include <config.h>

void vm_arch_init(struct vm* vm, const struct vm_config* config)
{
    fd80000032c0:	a9bd7bfd 	stp	x29, x30, [sp, #-48]!
    if (vm->master == cpu()->id) {
    fd80000032c4:	d2dfc002 	mov	x2, #0xfe0000000000        	// #279275953455104
{
    fd80000032c8:	910003fd 	mov	x29, sp
    if (vm->master == cpu()->id) {
    fd80000032cc:	f9400042 	ldr	x2, [x2]
{
    fd80000032d0:	a90153f3 	stp	x19, x20, [sp, #16]
    fd80000032d4:	aa0003f3 	mov	x19, x0
    if (vm->master == cpu()->id) {
    fd80000032d8:	f9401c03 	ldr	x3, [x0, #56]
{
    fd80000032dc:	f90013f5 	str	x21, [sp, #32]
    if (vm->master == cpu()->id) {
    fd80000032e0:	eb02007f 	cmp	x3, x2
    fd80000032e4:	54000a00 	b.eq	fd8000003424 <vm_arch_init+0x164>  // b.none

static inline void cpu_sync_and_clear_msgs(struct cpu_synctoken* token)
{
    size_t next_count = 0;

    while (!token->ready) { }
    fd80000032e8:	91006273 	add	x19, x19, #0x18
    fd80000032ec:	d503201f 	nop
    fd80000032f0:	39404260 	ldrb	w0, [x19, #16]
    fd80000032f4:	3607ffe0 	tbz	w0, #0, fd80000032f0 <vm_arch_init+0x30>
    __asm__ volatile(
    fd80000032f8:	91001263 	add	x3, x19, #0x4
    fd80000032fc:	885ffe60 	ldaxr	w0, [x19]
    fd8000003300:	11000401 	add	w1, w0, #0x1
    fd8000003304:	88027e61 	stxr	w2, w1, [x19]
    fd8000003308:	35ffffa2 	cbnz	w2, fd80000032fc <vm_arch_init+0x3c>
    fd800000330c:	88dffc61 	ldar	w1, [x3]
    fd8000003310:	6b01001f 	cmp	w0, w1
    fd8000003314:	54000060 	b.eq	fd8000003320 <vm_arch_init+0x60>  // b.none
    fd8000003318:	d503205f 	wfe
    fd800000331c:	17fffffc 	b	fd800000330c <vm_arch_init+0x4c>

    spin_lock(&token->lock);
    token->count++;
    fd8000003320:	f9400e60 	ldr	x0, [x19, #24]
    fd8000003324:	91000400 	add	x0, x0, #0x1
    fd8000003328:	f9000e60 	str	x0, [x19, #24]
    next_count = ALIGN(token->count, token->n);
    fd800000332c:	f9400e74 	ldr	x20, [x19, #24]
    fd8000003330:	f9400660 	ldr	x0, [x19, #8]
    fd8000003334:	f9400661 	ldr	x1, [x19, #8]
    fd8000003338:	8b000294 	add	x20, x20, x0
    fd800000333c:	d1000694 	sub	x20, x20, #0x1
    fd8000003340:	f9400660 	ldr	x0, [x19, #8]
    fd8000003344:	9ac10a94 	udiv	x20, x20, x1
    fd8000003348:	9b007e94 	mul	x20, x20, x0
    __asm__ volatile(
    fd800000334c:	b9400060 	ldr	w0, [x3]
    fd8000003350:	11000400 	add	w0, w0, #0x1
    fd8000003354:	889ffc60 	stlr	w0, [x3]
    fd8000003358:	d5033b9f 	dsb	ish
    fd800000335c:	d503209f 	sev
    spin_unlock(&token->lock);

    while (token->count < next_count) {
        if (!cpu()->handling_msgs) {
    fd8000003360:	d2dfc015 	mov	x21, #0xfe0000000000        	// #279275953455104
    while (token->count < next_count) {
    fd8000003364:	f9400e61 	ldr	x1, [x19, #24]
        if (!cpu()->handling_msgs) {
    fd8000003368:	394022a0 	ldrb	w0, [x21, #8]
    while (token->count < next_count) {
    fd800000336c:	eb01029f 	cmp	x20, x1
        if (!cpu()->handling_msgs) {
    fd8000003370:	12000001 	and	w1, w0, #0x1
    while (token->count < next_count) {
    fd8000003374:	540000c9 	b.ls	fd800000338c <vm_arch_init+0xcc>  // b.plast
        if (!cpu()->handling_msgs) {
    fd8000003378:	36000520 	tbz	w0, #0, fd800000341c <vm_arch_init+0x15c>
    fd800000337c:	d503201f 	nop
    while (token->count < next_count) {
    fd8000003380:	f9400e60 	ldr	x0, [x19, #24]
    fd8000003384:	eb00029f 	cmp	x20, x0
    fd8000003388:	54ffffc8 	b.hi	fd8000003380 <vm_arch_init+0xc0>  // b.pmore
            cpu_msg_handler();
        }
    }

    if (!cpu()->handling_msgs) {
    fd800000338c:	34000541 	cbz	w1, fd8000003434 <vm_arch_init+0x174>
    while (!token->ready) { }
    fd8000003390:	39404260 	ldrb	w0, [x19, #16]
    fd8000003394:	3607ffe0 	tbz	w0, #0, fd8000003390 <vm_arch_init+0xd0>
    __asm__ volatile(
    fd8000003398:	91001263 	add	x3, x19, #0x4
    fd800000339c:	885ffe60 	ldaxr	w0, [x19]
    fd80000033a0:	11000401 	add	w1, w0, #0x1
    fd80000033a4:	88027e61 	stxr	w2, w1, [x19]
    fd80000033a8:	35ffffa2 	cbnz	w2, fd800000339c <vm_arch_init+0xdc>
    fd80000033ac:	88dffc61 	ldar	w1, [x3]
    fd80000033b0:	6b01001f 	cmp	w0, w1
    fd80000033b4:	54000060 	b.eq	fd80000033c0 <vm_arch_init+0x100>  // b.none
    fd80000033b8:	d503205f 	wfe
    fd80000033bc:	17fffffc 	b	fd80000033ac <vm_arch_init+0xec>
    token->count++;
    fd80000033c0:	f9400e60 	ldr	x0, [x19, #24]
    fd80000033c4:	91000400 	add	x0, x0, #0x1
    fd80000033c8:	f9000e60 	str	x0, [x19, #24]
    next_count = ALIGN(token->count, token->n);
    fd80000033cc:	f9400e61 	ldr	x1, [x19, #24]
    fd80000033d0:	f9400660 	ldr	x0, [x19, #8]
    fd80000033d4:	f9400662 	ldr	x2, [x19, #8]
    fd80000033d8:	8b000021 	add	x1, x1, x0
    fd80000033dc:	d1000421 	sub	x1, x1, #0x1
    fd80000033e0:	f9400660 	ldr	x0, [x19, #8]
    fd80000033e4:	9ac20821 	udiv	x1, x1, x2
    fd80000033e8:	9b007c21 	mul	x1, x1, x0
    __asm__ volatile(
    fd80000033ec:	b9400060 	ldr	w0, [x3]
    fd80000033f0:	11000400 	add	w0, w0, #0x1
    fd80000033f4:	889ffc60 	stlr	w0, [x3]
    fd80000033f8:	d5033b9f 	dsb	ish
    fd80000033fc:	d503209f 	sev
    while (token->count < next_count) { }
    fd8000003400:	f9400e60 	ldr	x0, [x19, #24]
    fd8000003404:	eb00003f 	cmp	x1, x0
    fd8000003408:	54ffffc8 	b.hi	fd8000003400 <vm_arch_init+0x140>  // b.pmore
        vgic_init(vm, &config->platform.arch.gic,config->platform.arch.gic.msi);
    }
    cpu_sync_and_clear_msgs(&vm->sync);
}
    fd800000340c:	a94153f3 	ldp	x19, x20, [sp, #16]
    fd8000003410:	f94013f5 	ldr	x21, [sp, #32]
    fd8000003414:	a8c37bfd 	ldp	x29, x30, [sp], #48
    fd8000003418:	d65f03c0 	ret
            cpu_msg_handler();
    fd800000341c:	94001fa1 	bl	fd800000b2a0 <cpu_msg_handler>
    fd8000003420:	17ffffd1 	b	fd8000003364 <vm_arch_init+0xa4>
        vgic_init(vm, &config->platform.arch.gic,config->platform.arch.gic.msi);
    fd8000003424:	3942e022 	ldrb	w2, [x1, #184]
    fd8000003428:	91026021 	add	x1, x1, #0x98
    fd800000342c:	94001305 	bl	fd8000008040 <vgic_init>
    fd8000003430:	17ffffae 	b	fd80000032e8 <vm_arch_init+0x28>
        cpu_msg_handler();
    fd8000003434:	94001f9b 	bl	fd800000b2a0 <cpu_msg_handler>
    while (!token->ready) { }
    fd8000003438:	17ffffd6 	b	fd8000003390 <vm_arch_init+0xd0>
    fd800000343c:	d503201f 	nop

0000fd8000003440 <vm_get_vcpu_by_mpidr>:

struct vcpu* vm_get_vcpu_by_mpidr(struct vm* vm, unsigned long mpidr)
{
    for (cpuid_t vcpuid = 0; vcpuid < vm->cpu_num; vcpuid++) {
    fd8000003440:	f9402405 	ldr	x5, [x0, #72]
    fd8000003444:	b40001c5 	cbz	x5, fd800000347c <vm_get_vcpu_by_mpidr+0x3c>
    fd8000003448:	f9402003 	ldr	x3, [x0, #64]
    fd800000344c:	d2800004 	mov	x4, #0x0                   	// #0
    fd8000003450:	14000003 	b	fd800000345c <vm_get_vcpu_by_mpidr+0x1c>
    fd8000003454:	eb05009f 	cmp	x4, x5
    fd8000003458:	54000120 	b.eq	fd800000347c <vm_get_vcpu_by_mpidr+0x3c>  // b.none
        struct vcpu* vcpu = vm_get_vcpu(vm, vcpuid);
        if ((vcpu->arch.vmpidr & MPIDR_AFF_MSK) == (mpidr & MPIDR_AFF_MSK)) {
    fd800000345c:	f9409062 	ldr	x2, [x3, #288]
cpumap_t vm_translate_to_vcpu_mask(struct vm* vm, cpumap_t mask, size_t len);

static inline struct vcpu* vm_get_vcpu(struct vm* vm, vcpuid_t vcpuid)
{
    if (vcpuid < vm->cpu_num) {
        return &vm->vcpus[vcpuid];
    fd8000003460:	aa0303e0 	mov	x0, x3
    for (cpuid_t vcpuid = 0; vcpuid < vm->cpu_num; vcpuid++) {
    fd8000003464:	91000484 	add	x4, x4, #0x1
    fd8000003468:	91268063 	add	x3, x3, #0x9a0
        if ((vcpu->arch.vmpidr & MPIDR_AFF_MSK) == (mpidr & MPIDR_AFF_MSK)) {
    fd800000346c:	ca020022 	eor	x2, x1, x2
    fd8000003470:	72003c5f 	tst	w2, #0xffff
    fd8000003474:	54ffff01 	b.ne	fd8000003454 <vm_get_vcpu_by_mpidr+0x14>  // b.any
            return vcpu;
        }
    }

    return NULL;
}
    fd8000003478:	d65f03c0 	ret
    return NULL;
    fd800000347c:	d2800000 	mov	x0, #0x0                   	// #0
}
    fd8000003480:	d65f03c0 	ret
    fd8000003484:	d503201f 	nop
    fd8000003488:	d503201f 	nop
    fd800000348c:	d503201f 	nop

0000fd8000003490 <vcpu_arch_init>:

    return mpidr;
}

void vcpu_arch_init(struct vcpu* vcpu, struct vm* vm)
{
    fd8000003490:	a9be7bfd 	stp	x29, x30, [sp, #-32]!
    fd8000003494:	910003fd 	mov	x29, sp
    if (cpuid > vm->cpu_num) {
    fd8000003498:	f9402422 	ldr	x2, [x1, #72]
{
    fd800000349c:	f9000bf3 	str	x19, [sp, #16]
    fd80000034a0:	aa0003f3 	mov	x19, x0
    vcpu->arch.vmpidr = vm_cpuid_to_mpidr(vm, vcpu->id);
    fd80000034a4:	f944bc00 	ldr	x0, [x0, #2424]
    if (cpuid > vm->cpu_num) {
    fd80000034a8:	eb02001f 	cmp	x0, x2
    fd80000034ac:	54000208 	b.hi	fd80000034ec <vcpu_arch_init+0x5c>  // b.pmore
    unsigned long mpidr = cpuid | MPIDR_RES1;
    fd80000034b0:	f100045f 	cmp	x2, #0x1
    fd80000034b4:	b2610003 	orr	x3, x0, #0x80000000
    fd80000034b8:	b2620402 	orr	x2, x0, #0xc0000000
    fd80000034bc:	9a830042 	csel	x2, x2, x3, eq	// eq = none
    vcpu->arch.vmpidr = vm_cpuid_to_mpidr(vm, vcpu->id);
    fd80000034c0:	f9009262 	str	x2, [x19, #288]
SYSREG_GEN_ACCESSORS(vmpidr_el2);
    fd80000034c4:	d51c00a2 	msr	vmpidr_el2, x2
    sysreg_vmpidr_el2_write(vcpu->arch.vmpidr); //put the value of Virtualization multiprocessor ID

    vcpu->arch.psci_ctx.state = vcpu->id == 0 ? ON : OFF;
    fd80000034c8:	f100001f 	cmp	x0, #0x0
    fd80000034cc:	1a9f07e0 	cset	w0, ne	// ne = any
    fd80000034d0:	b9097260 	str	w0, [x19, #2416]

    vcpu_arch_profile_init(vcpu, vm);
    fd80000034d4:	aa1303e0 	mov	x0, x19
    fd80000034d8:	97fff9ba 	bl	fd8000001bc0 <vcpu_arch_profile_init>

    vgic_cpu_init(vcpu);
    fd80000034dc:	aa1303e0 	mov	x0, x19
}
    fd80000034e0:	f9400bf3 	ldr	x19, [sp, #16]
    fd80000034e4:	a8c27bfd 	ldp	x29, x30, [sp], #32
    vgic_cpu_init(vcpu);
    fd80000034e8:	1400136a 	b	fd8000008290 <vgic_cpu_init>
        return ~(~MPIDR_RES1 & MPIDR_RES0_MSK); // return an invlid mpidr by
    fd80000034ec:	929fffe2 	mov	x2, #0xffffffffffff0000    	// #-65536
    fd80000034f0:	f2b7c002 	movk	x2, #0xbe00, lsl #16
    fd80000034f4:	17fffff3 	b	fd80000034c0 <vcpu_arch_init+0x30>
    fd80000034f8:	d503201f 	nop
    fd80000034fc:	d503201f 	nop

0000fd8000003500 <vcpu_arch_reset>:

void vcpu_arch_reset(struct vcpu* vcpu, vaddr_t entry)
{
    fd8000003500:	a9be7bfd 	stp	x29, x30, [sp, #-32]!
    memset(&vcpu->regs, 0, sizeof(struct arch_regs));
    fd8000003504:	d2802202 	mov	x2, #0x110                 	// #272
{
    fd8000003508:	910003fd 	mov	x29, sp
    fd800000350c:	a90153f3 	stp	x19, x20, [sp, #16]
    fd8000003510:	aa0103f4 	mov	x20, x1
    memset(&vcpu->regs, 0, sizeof(struct arch_regs));
    fd8000003514:	52800001 	mov	w1, #0x0                   	// #0
{
    fd8000003518:	aa0003f3 	mov	x19, x0
    memset(&vcpu->regs, 0, sizeof(struct arch_regs));
    fd800000351c:	91004000 	add	x0, x0, #0x10
    fd8000003520:	9400171c 	bl	fd8000009190 <memset>

    vcpu_subarch_reset(vcpu);
    fd8000003524:	aa1303e0 	mov	x0, x19
    fd8000003528:	97fff8d2 	bl	fd8000001870 <vcpu_subarch_reset>

    vcpu_writepc(vcpu, entry);
    fd800000352c:	aa1303e0 	mov	x0, x19
    fd8000003530:	aa1403e1 	mov	x1, x20
    fd8000003534:	97fff8cb 	bl	fd8000001860 <vcpu_writepc>
SYSREG_GEN_ACCESSORS(cntvoff_el2);
    fd8000003538:	d2800000 	mov	x0, #0x0                   	// #0
    fd800000353c:	d51ce060 	msr	cntvoff_el2, x0
SYSREG_GEN_ACCESSORS(sctlr_el1);
    fd8000003540:	d2810601 	mov	x1, #0x830                 	// #2096
    fd8000003544:	f2a618a1 	movk	x1, #0x30c5, lsl #16
    fd8000003548:	d5181001 	msr	sctlr_el1, x1
SYSREG_GEN_ACCESSORS(cntkctl_el1);
    fd800000354c:	d518e100 	msr	cntkctl_el1, x0
SYSREG_GEN_ACCESSORS(pmcr_el0);
    fd8000003550:	d51b9c00 	msr	pmcr_el0, x0

    /**
     *  TODO: ARMv8-A ARM mentions another implementation optional registers that reset to a known
     * value.
     */
}
    fd8000003554:	a94153f3 	ldp	x19, x20, [sp, #16]
    fd8000003558:	a8c27bfd 	ldp	x29, x30, [sp], #32
    fd800000355c:	d65f03c0 	ret

0000fd8000003560 <vcpu_arch_run>:
    return vcpu->arch.psci_ctx.state == ON;
}

void vcpu_arch_run(struct vcpu* vcpu)
{
    if (vcpu_psci_state_on(vcpu)) {
    fd8000003560:	b9497000 	ldr	w0, [x0, #2416]
    fd8000003564:	35000040 	cbnz	w0, fd800000356c <vcpu_arch_run+0xc>
        vcpu_arch_entry();
    fd8000003568:	17fff4a6 	b	fd8000000800 <vcpu_arch_entry>
    } else {
        cpu_idle();
    fd800000356c:	14001f71 	b	fd800000b330 <cpu_idle>

0000fd8000003570 <sysreg_handler>:
        return (regaddr_t)UNDEFINED_REG_ADDR;
    }
}

void sysreg_handler(unsigned long iss, unsigned long far, unsigned long il, unsigned long ec)
{
    fd8000003570:	a9b87bfd 	stp	x29, x30, [sp, #-128]!
    regaddr_t reg_addr = UNDEFINED_REG_ADDR;
    if (ec == ESR_EC_RG_64) {
    fd8000003574:	f100107f 	cmp	x3, #0x4
{
    fd8000003578:	910003fd 	mov	x29, sp
    fd800000357c:	a90153f3 	stp	x19, x20, [sp, #16]
    fd8000003580:	aa0003f3 	mov	x19, x0
    fd8000003584:	a9025bf5 	stp	x21, x22, [sp, #32]
    fd8000003588:	aa0303f5 	mov	x21, x3
    fd800000358c:	aa0203f6 	mov	x22, x2
    fd8000003590:	f9001bf7 	str	x23, [sp, #48]
    if (ec == ESR_EC_RG_64) {
    fd8000003594:	540005c0 	b.eq	fd800000364c <sysreg_handler+0xdc>  // b.none
        reg_addr = reg_addr_translate(iss);
    } else {
        reg_addr = (iss & ESR_ISS_SYSREG_ADDR_32) | OP0_MRS_CP15;
    }

    emul_handler_t handler = vm_emul_get_reg(cpu()->vcpu->vm, reg_addr);
    fd8000003598:	d2dfc017 	mov	x23, #0xfe0000000000        	// #279275953455104
        reg_addr = (iss & ESR_ISS_SYSREG_ADDR_32) | OP0_MRS_CP15;
    fd800000359c:	927f4814 	and	x20, x0, #0xffffe
    fd80000035a0:	9276ea94 	and	x20, x20, #0xfffffffffffffc1f
    emul_handler_t handler = vm_emul_get_reg(cpu()->vcpu->vm, reg_addr);
    fd80000035a4:	f9402ae0 	ldr	x0, [x23, #80]
        reg_addr = (iss & ESR_ISS_SYSREG_ADDR_32) | OP0_MRS_CP15;
    fd80000035a8:	b26c0694 	orr	x20, x20, #0x300000
    emul_handler_t handler = vm_emul_get_reg(cpu()->vcpu->vm, reg_addr);
    fd80000035ac:	aa1403e1 	mov	x1, x20
    fd80000035b0:	f944c800 	ldr	x0, [x0, #2448]
    fd80000035b4:	940023ab 	bl	fd800000c460 <vm_emul_get_reg>
    fd80000035b8:	aa0003e1 	mov	x1, x0
    if (handler != NULL) {
    fd80000035bc:	b4000640 	cbz	x0, fd8000003684 <sysreg_handler+0x114>
        emul.width = 8;
        emul.write = iss & ESR_ISS_SYSREG_DIR ? false : true;
        emul.reg = bit64_extract(iss, ESR_ISS_SYSREG_REG_OFF, ESR_ISS_SYSREG_REG_LEN);
        emul.reg_high = bit64_extract(iss, ESR_ISS_SYSREG_REG2_OFF, ESR_ISS_SYSREG_REG2_LEN);
        emul.reg_width = 8;
        emul.multi_reg = (ec == ESR_EC_RG_64) ? true : false;
    fd80000035c0:	f10012bf 	cmp	x21, #0x4
        emul.write = iss & ESR_ISS_SYSREG_DIR ? false : true;
    fd80000035c4:	aa3303e0 	mvn	x0, x19
        emul.multi_reg = (ec == ESR_EC_RG_64) ? true : false;
    fd80000035c8:	1a9f17e3 	cset	w3, eq	// eq = none
    fd80000035cc:	d3452664 	ubfx	x4, x19, #5, #5
        emul.write = iss & ESR_ISS_SYSREG_DIR ? false : true;
    fd80000035d0:	12000000 	and	w0, w0, #0x1
        emul.width = 8;
    fd80000035d4:	d2800102 	mov	x2, #0x8                   	// #8
    fd80000035d8:	d34a3a73 	ubfx	x19, x19, #10, #5
        emul.addr = reg_addr;
    fd80000035dc:	f90027f4 	str	x20, [sp, #72]
        emul.write = iss & ESR_ISS_SYSREG_DIR ? false : true;
    fd80000035e0:	390143e0 	strb	w0, [sp, #80]
        emul.sign_ext = false;

        if (handler(&emul)) {
    fd80000035e4:	910123e0 	add	x0, sp, #0x48
        emul.sign_ext = false;
    fd80000035e8:	390147ff 	strb	wzr, [sp, #81]
        emul.reg = bit64_extract(iss, ESR_ISS_SYSREG_REG_OFF, ESR_ISS_SYSREG_REG_LEN);
    fd80000035ec:	a90593e2 	stp	x2, x4, [sp, #88]
        emul.reg_high = bit64_extract(iss, ESR_ISS_SYSREG_REG2_OFF, ESR_ISS_SYSREG_REG2_LEN);
    fd80000035f0:	f90037f3 	str	x19, [sp, #104]
        emul.multi_reg = (ec == ESR_EC_RG_64) ? true : false;
    fd80000035f4:	3901c3e3 	strb	w3, [sp, #112]
        emul.reg_width = 8;
    fd80000035f8:	f9003fe2 	str	x2, [sp, #120]
        if (handler(&emul)) {
    fd80000035fc:	d63f0020 	blr	x1
    fd8000003600:	360001c0 	tbz	w0, #0, fd8000003638 <sysreg_handler+0xc8>
            unsigned long pc_step = 2 + (2 * il);
            vcpu_writepc(cpu()->vcpu, vcpu_readpc(cpu()->vcpu) + pc_step);
    fd8000003604:	f9402af3 	ldr	x19, [x23, #80]
            unsigned long pc_step = 2 + (2 * il);
    fd8000003608:	910006d6 	add	x22, x22, #0x1
            vcpu_writepc(cpu()->vcpu, vcpu_readpc(cpu()->vcpu) + pc_step);
    fd800000360c:	aa1303e0 	mov	x0, x19
    fd8000003610:	97fff890 	bl	fd8000001850 <vcpu_readpc>
    fd8000003614:	aa0003e1 	mov	x1, x0
    fd8000003618:	aa1303e0 	mov	x0, x19
    fd800000361c:	8b160421 	add	x1, x1, x22, lsl #1
    fd8000003620:	97fff890 	bl	fd8000001860 <vcpu_writepc>
        }
    } else {
        ERROR("no emulation handler for register access (0x%x at 0x%x)", reg_addr,
            vcpu_readpc(cpu()->vcpu));
    }
}
    fd8000003624:	a94153f3 	ldp	x19, x20, [sp, #16]
    fd8000003628:	a9425bf5 	ldp	x21, x22, [sp, #32]
    fd800000362c:	f9401bf7 	ldr	x23, [sp, #48]
    fd8000003630:	a8c87bfd 	ldp	x29, x30, [sp], #128
    fd8000003634:	d65f03c0 	ret
            ERROR("register access emulation failed (0x%x)", reg_addr);
    fd8000003638:	90000000 	adrp	x0, fd8000003000 <cache_arch_enumerate+0x30>
    fd800000363c:	aa1403e1 	mov	x1, x20
    fd8000003640:	f9435400 	ldr	x0, [x0, #1704]
    fd8000003644:	9400244f 	bl	fd800000c780 <console_printk>
    fd8000003648:	14000000 	b	fd8000003648 <sysreg_handler+0xd8>
    iss &= ESR_ISS_SYSREG_ADDR_64;
    fd800000364c:	927f4800 	and	x0, x0, #0xffffe
    emul_handler_t handler = vm_emul_get_reg(cpu()->vcpu->vm, reg_addr);
    fd8000003650:	d2dfc017 	mov	x23, #0xfe0000000000        	// #279275953455104
    iss &= ESR_ISS_SYSREG_ADDR_64;
    fd8000003654:	9270d000 	and	x0, x0, #0xffffffffffff001f
        return (regaddr_t)ICC_SGI1R_ADDR;
    fd8000003658:	b2407ff4 	mov	x20, #0xffffffff            	// #4294967295
    fd800000365c:	f100601f 	cmp	x0, #0x18
    fd8000003660:	d28602c1 	mov	x1, #0x3016                	// #12310
    fd8000003664:	f2a00741 	movk	x1, #0x3a, lsl #16
    fd8000003668:	9a811294 	csel	x20, x20, x1, ne	// ne = any
    emul_handler_t handler = vm_emul_get_reg(cpu()->vcpu->vm, reg_addr);
    fd800000366c:	f9402ae0 	ldr	x0, [x23, #80]
    fd8000003670:	aa1403e1 	mov	x1, x20
    fd8000003674:	f944c800 	ldr	x0, [x0, #2448]
    fd8000003678:	9400237a 	bl	fd800000c460 <vm_emul_get_reg>
    fd800000367c:	aa0003e1 	mov	x1, x0
    if (handler != NULL) {
    fd8000003680:	b5fffa00 	cbnz	x0, fd80000035c0 <sysreg_handler+0x50>
        ERROR("no emulation handler for register access (0x%x at 0x%x)", reg_addr,
    fd8000003684:	f9402ae0 	ldr	x0, [x23, #80]
    fd8000003688:	97fff872 	bl	fd8000001850 <vcpu_readpc>
    fd800000368c:	aa0003e2 	mov	x2, x0
    fd8000003690:	90000003 	adrp	x3, fd8000003000 <cache_arch_enumerate+0x30>
    fd8000003694:	aa1403e1 	mov	x1, x20
    fd8000003698:	f9435860 	ldr	x0, [x3, #1712]
    fd800000369c:	94002439 	bl	fd800000c780 <console_printk>
    fd80000036a0:	14000000 	b	fd80000036a0 <sysreg_handler+0x130>
    fd80000036a4:	d503201f 	nop
    fd80000036a8:	000104a0 	.word	0x000104a0
    fd80000036ac:	0000fd80 	.word	0x0000fd80
    fd80000036b0:	000104d8 	.word	0x000104d8
    fd80000036b4:	0000fd80 	.word	0x0000fd80
    fd80000036b8:	d503201f 	nop
    fd80000036bc:	d503201f 	nop

0000fd80000036c0 <aborts_data_lower>:
{
    fd80000036c0:	a9b97bfd 	stp	x29, x30, [sp, #-112]!
    fd80000036c4:	910003fd 	mov	x29, sp
    fd80000036c8:	a90153f3 	stp	x19, x20, [sp, #16]
    fd80000036cc:	aa0003f3 	mov	x19, x0
    if (!(iss & ESR_ISS_DA_ISV_BIT) || (iss & ESR_ISS_DA_FnV_BIT)) {
    fd80000036d0:	d2808000 	mov	x0, #0x400                 	// #1024
    fd80000036d4:	f2a02000 	movk	x0, #0x100, lsl #16
{
    fd80000036d8:	a9025bf5 	stp	x21, x22, [sp, #32]
    if (!(iss & ESR_ISS_DA_ISV_BIT) || (iss & ESR_ISS_DA_FnV_BIT)) {
    fd80000036dc:	8a000263 	and	x3, x19, x0
    fd80000036e0:	d1100000 	sub	x0, x0, #0x400
    fd80000036e4:	eb00007f 	cmp	x3, x0
    fd80000036e8:	540005e1 	b.ne	fd80000037a4 <aborts_data_lower+0xe4>  // b.any
    if (DSFC != ESR_ISS_DA_DSFC_TRNSLT && DSFC != ESR_ISS_DA_DSFC_PERMIS) {
    fd80000036ec:	d2800680 	mov	x0, #0x34                  	// #52
    fd80000036f0:	8a000260 	and	x0, x19, x0
    fd80000036f4:	f100101f 	cmp	x0, #0x4
    fd80000036f8:	540004e1 	b.ne	fd8000003794 <aborts_data_lower+0xd4>  // b.any
    emul_handler_t handler = vm_emul_get_mem(cpu()->vcpu->vm, addr);
    fd80000036fc:	d2dfc016 	mov	x22, #0xfe0000000000        	// #279275953455104
    fd8000003700:	aa0103f4 	mov	x20, x1
    fd8000003704:	aa0203f5 	mov	x21, x2
    fd8000003708:	f9402ac0 	ldr	x0, [x22, #80]
    fd800000370c:	f944c800 	ldr	x0, [x0, #2448]
    fd8000003710:	94002344 	bl	fd800000c420 <vm_emul_get_mem>
    fd8000003714:	aa0003e1 	mov	x1, x0
    if (handler != NULL) {
    fd8000003718:	b4000580 	cbz	x0, fd80000037c8 <aborts_data_lower+0x108>
    fd800000371c:	d3565e60 	ubfx	x0, x19, #22, #2
    fd8000003720:	d34f3e62 	ubfx	x2, x19, #15, #1
        emul.reg_width = 4 + (4 * bit64_extract(iss, ESR_ISS_DA_SF_OFF, ESR_ISS_DA_SF_LEN));
    fd8000003724:	91000442 	add	x2, x2, #0x1
        emul.width = (1 << bit64_extract(iss, ESR_ISS_DA_SAS_OFF, ESR_ISS_DA_SAS_LEN));
    fd8000003728:	52800023 	mov	w3, #0x1                   	// #1
    fd800000372c:	1ac02063 	lsl	w3, w3, w0
        emul.write = iss & ESR_ISS_DA_WnR_BIT ? true : false;
    fd8000003730:	53061a65 	ubfx	w5, w19, #6, #1
    fd8000003734:	d3505264 	ubfx	x4, x19, #16, #5
        emul.width = (1 << bit64_extract(iss, ESR_ISS_DA_SAS_OFF, ESR_ISS_DA_SAS_LEN));
    fd8000003738:	93407c63 	sxtw	x3, w3
        emul.reg_width = 4 + (4 * bit64_extract(iss, ESR_ISS_DA_SF_OFF, ESR_ISS_DA_SF_LEN));
    fd800000373c:	d37ef442 	lsl	x2, x2, #2
        emul.sign_ext = bit64_extract(iss, ESR_ISS_DA_SSE_OFF, ESR_ISS_DA_SSE_LEN);
    fd8000003740:	53155673 	ubfx	w19, w19, #21, #1
        emul.addr = addr;
    fd8000003744:	f9001ff4 	str	x20, [sp, #56]
        if (handler(&emul)) {
    fd8000003748:	9100e3e0 	add	x0, sp, #0x38
        emul.write = iss & ESR_ISS_DA_WnR_BIT ? true : false;
    fd800000374c:	390103e5 	strb	w5, [sp, #64]
        emul.sign_ext = bit64_extract(iss, ESR_ISS_DA_SSE_OFF, ESR_ISS_DA_SSE_LEN);
    fd8000003750:	390107f3 	strb	w19, [sp, #65]
        emul.reg = bit64_extract(iss, ESR_ISS_DA_SRT_OFF, ESR_ISS_DA_SRT_LEN);
    fd8000003754:	a90493e3 	stp	x3, x4, [sp, #72]
        emul.reg_width = 4 + (4 * bit64_extract(iss, ESR_ISS_DA_SF_OFF, ESR_ISS_DA_SF_LEN));
    fd8000003758:	f90037e2 	str	x2, [sp, #104]
        if (handler(&emul)) {
    fd800000375c:	d63f0020 	blr	x1
    fd8000003760:	360002a0 	tbz	w0, #0, fd80000037b4 <aborts_data_lower+0xf4>
            vcpu_writepc(cpu()->vcpu, vcpu_readpc(cpu()->vcpu) + pc_step);
    fd8000003764:	f9402ad3 	ldr	x19, [x22, #80]
            unsigned long pc_step = 2 + (2 * il);
    fd8000003768:	910006b5 	add	x21, x21, #0x1
            vcpu_writepc(cpu()->vcpu, vcpu_readpc(cpu()->vcpu) + pc_step);
    fd800000376c:	aa1303e0 	mov	x0, x19
    fd8000003770:	97fff838 	bl	fd8000001850 <vcpu_readpc>
    fd8000003774:	aa0003e1 	mov	x1, x0
    fd8000003778:	aa1303e0 	mov	x0, x19
    fd800000377c:	8b150421 	add	x1, x1, x21, lsl #1
    fd8000003780:	97fff838 	bl	fd8000001860 <vcpu_writepc>
}
    fd8000003784:	a94153f3 	ldp	x19, x20, [sp, #16]
    fd8000003788:	a9425bf5 	ldp	x21, x22, [sp, #32]
    fd800000378c:	a8c77bfd 	ldp	x29, x30, [sp], #112
    fd8000003790:	d65f03c0 	ret
        ERROR("data abort is not translation fault - cant deal with it");
    fd8000003794:	90000000 	adrp	x0, fd8000003000 <cache_arch_enumerate+0x30>
    fd8000003798:	f943f800 	ldr	x0, [x0, #2032]
    fd800000379c:	940023f9 	bl	fd800000c780 <console_printk>
    fd80000037a0:	14000000 	b	fd80000037a0 <aborts_data_lower+0xe0>
        ERROR("no information to handle data abort (0x%x)", far);
    fd80000037a4:	90000000 	adrp	x0, fd8000003000 <cache_arch_enumerate+0x30>
    fd80000037a8:	f943f400 	ldr	x0, [x0, #2024]
    fd80000037ac:	940023f5 	bl	fd800000c780 <console_printk>
    fd80000037b0:	14000000 	b	fd80000037b0 <aborts_data_lower+0xf0>
            ERROR("data abort emulation failed (0x%x)", far);
    fd80000037b4:	90000000 	adrp	x0, fd8000003000 <cache_arch_enumerate+0x30>
    fd80000037b8:	aa1403e1 	mov	x1, x20
    fd80000037bc:	f943fc00 	ldr	x0, [x0, #2040]
    fd80000037c0:	940023f0 	bl	fd800000c780 <console_printk>
    fd80000037c4:	14000000 	b	fd80000037c4 <aborts_data_lower+0x104>
        ERROR("no emulation handler for abort(0x%lx at 0x%x)", far, vcpu_readpc(cpu()->vcpu));
    fd80000037c8:	f9402ac0 	ldr	x0, [x22, #80]
    fd80000037cc:	97fff821 	bl	fd8000001850 <vcpu_readpc>
    fd80000037d0:	aa0003e2 	mov	x2, x0
    fd80000037d4:	90000003 	adrp	x3, fd8000003000 <cache_arch_enumerate+0x30>
    fd80000037d8:	aa1403e1 	mov	x1, x20
    fd80000037dc:	f9440060 	ldr	x0, [x3, #2048]
    fd80000037e0:	940023e8 	bl	fd800000c780 <console_printk>
    fd80000037e4:	14000000 	b	fd80000037e4 <aborts_data_lower+0x124>
    fd80000037e8:	00010520 	.word	0x00010520
    fd80000037ec:	0000fd80 	.word	0x0000fd80
    fd80000037f0:	00010558 	.word	0x00010558
    fd80000037f4:	0000fd80 	.word	0x0000fd80
    fd80000037f8:	000105a0 	.word	0x000105a0
    fd80000037fc:	0000fd80 	.word	0x0000fd80
    fd8000003800:	000105d0 	.word	0x000105d0
    fd8000003804:	0000fd80 	.word	0x0000fd80
    fd8000003808:	d503201f 	nop
    fd800000380c:	d503201f 	nop

0000fd8000003810 <standard_service_call>:
{
    fd8000003810:	a9bd7bfd 	stp	x29, x30, [sp, #-48]!
    unsigned long smc_fid = vcpu_readreg(cpu()->vcpu, 0);
    fd8000003814:	d2800001 	mov	x1, #0x0                   	// #0
{
    fd8000003818:	910003fd 	mov	x29, sp
    fd800000381c:	a90153f3 	stp	x19, x20, [sp, #16]
    unsigned long smc_fid = vcpu_readreg(cpu()->vcpu, 0);
    fd8000003820:	d2dfc014 	mov	x20, #0xfe0000000000        	// #279275953455104
    fd8000003824:	f9402a80 	ldr	x0, [x20, #80]
{
    fd8000003828:	f90013f5 	str	x21, [sp, #32]
    unsigned long smc_fid = vcpu_readreg(cpu()->vcpu, 0);
    fd800000382c:	97fff7f9 	bl	fd8000001810 <vcpu_readreg>
    fd8000003830:	aa0003f3 	mov	x19, x0
    unsigned long x1 = vcpu_readreg(cpu()->vcpu, 1);
    fd8000003834:	f9402a80 	ldr	x0, [x20, #80]
    fd8000003838:	d2800021 	mov	x1, #0x1                   	// #1
    fd800000383c:	97fff7f5 	bl	fd8000001810 <vcpu_readreg>
    fd8000003840:	aa0003f5 	mov	x21, x0
    unsigned long x2 = vcpu_readreg(cpu()->vcpu, 2);
    fd8000003844:	f9402a80 	ldr	x0, [x20, #80]
    fd8000003848:	d2800041 	mov	x1, #0x2                   	// #2
    fd800000384c:	97fff7f1 	bl	fd8000001810 <vcpu_readreg>
    fd8000003850:	aa0003e2 	mov	x2, x0
    unsigned long x3 = vcpu_readreg(cpu()->vcpu, 3);
    fd8000003854:	f9402a80 	ldr	x0, [x20, #80]
    fd8000003858:	d2800061 	mov	x1, #0x3                   	// #3
    unsigned long x2 = vcpu_readreg(cpu()->vcpu, 2);
    fd800000385c:	aa0203f4 	mov	x20, x2
    unsigned long x3 = vcpu_readreg(cpu()->vcpu, 3);
    fd8000003860:	97fff7ec 	bl	fd8000001810 <vcpu_readreg>
    fd8000003864:	aa0003e3 	mov	x3, x0
    if (is_psci_fid(smc_fid)) {
    fd8000003868:	d2b7e004 	mov	x4, #0xbf000000            	// #3204448256
    fd800000386c:	8a040264 	and	x4, x19, x4
    fd8000003870:	d2b08000 	mov	x0, #0x84000000            	// #2214592512
    fd8000003874:	eb00009f 	cmp	x4, x0
    fd8000003878:	54000181 	b.ne	fd80000038a8 <standard_service_call+0x98>  // b.any
    fd800000387c:	f27b2a7f 	tst	x19, #0xffe0
    fd8000003880:	54000141 	b.ne	fd80000038a8 <standard_service_call+0x98>  // b.any
        ret = psci_smc_handler(smc_fid, x1, x2, x3);
    fd8000003884:	aa1403e2 	mov	x2, x20
    fd8000003888:	aa1503e1 	mov	x1, x21
    fd800000388c:	2a1303e0 	mov	w0, w19
    fd8000003890:	94000ec4 	bl	fd80000073a0 <psci_smc_handler>
    fd8000003894:	93407c00 	sxtw	x0, w0
}
    fd8000003898:	a94153f3 	ldp	x19, x20, [sp, #16]
    fd800000389c:	f94013f5 	ldr	x21, [sp, #32]
    fd80000038a0:	a8c37bfd 	ldp	x29, x30, [sp], #48
    fd80000038a4:	d65f03c0 	ret
        INFO("unknown smc_fid 0x%lx", smc_fid);
    fd80000038a8:	90000000 	adrp	x0, fd8000003000 <cache_arch_enumerate+0x30>
    fd80000038ac:	aa1303e1 	mov	x1, x19
    fd80000038b0:	f9446000 	ldr	x0, [x0, #2240]
    fd80000038b4:	940023b3 	bl	fd800000c780 <console_printk>
    int64_t ret = -1;
    fd80000038b8:	92800000 	mov	x0, #0xffffffffffffffff    	// #-1
    return ret;
    fd80000038bc:	17fffff7 	b	fd8000003898 <standard_service_call+0x88>
    fd80000038c0:	00010610 	.word	0x00010610
    fd80000038c4:	0000fd80 	.word	0x0000fd80
    fd80000038c8:	d503201f 	nop
    fd80000038cc:	d503201f 	nop

0000fd80000038d0 <smc_handler>:
{
    fd80000038d0:	a9be7bfd 	stp	x29, x30, [sp, #-32]!
    unsigned long fid = vcpu_readreg(cpu()->vcpu, 0);
    fd80000038d4:	d2dfc000 	mov	x0, #0xfe0000000000        	// #279275953455104
    fd80000038d8:	d2800001 	mov	x1, #0x0                   	// #0
{
    fd80000038dc:	910003fd 	mov	x29, sp
    unsigned long fid = vcpu_readreg(cpu()->vcpu, 0);
    fd80000038e0:	f9402800 	ldr	x0, [x0, #80]
{
    fd80000038e4:	f9000bf3 	str	x19, [sp, #16]
    unsigned long fid = vcpu_readreg(cpu()->vcpu, 0);
    fd80000038e8:	97fff7ca 	bl	fd8000001810 <vcpu_readreg>
    switch (fid & ~SMCC_FID_FN_NUM_MSK) {
    fd80000038ec:	9270bc01 	and	x1, x0, #0xffffffffffff0000
    fd80000038f0:	d2b88002 	mov	x2, #0xc4000000            	// #3288334336
    fd80000038f4:	eb02003f 	cmp	x1, x2
    fd80000038f8:	54000420 	b.eq	fd800000397c <smc_handler+0xac>  // b.none
    fd80000038fc:	540002e8 	b.hi	fd8000003958 <smc_handler+0x88>  // b.pmore
    fd8000003900:	d2b08002 	mov	x2, #0x84000000            	// #2214592512
    fd8000003904:	eb02003f 	cmp	x1, x2
    fd8000003908:	540003a0 	b.eq	fd800000397c <smc_handler+0xac>  // b.none
    fd800000390c:	d2b0c002 	mov	x2, #0x86000000            	// #2248146944
    fd8000003910:	eb02003f 	cmp	x1, x2
    fd8000003914:	54000281 	b.ne	fd8000003964 <smc_handler+0x94>  // b.any
            ret = hypercall(fid & SMCC_FID_FN_NUM_MSK);
    fd8000003918:	92403c00 	and	x0, x0, #0xffff
    fd800000391c:	94002589 	bl	fd800000cf40 <hypercall>
    fd8000003920:	aa0003e2 	mov	x2, x0
    vcpu_writereg(cpu()->vcpu, 0, ret);
    fd8000003924:	d2dfc013 	mov	x19, #0xfe0000000000        	// #279275953455104
    fd8000003928:	d2800001 	mov	x1, #0x0                   	// #0
    fd800000392c:	f9402a60 	ldr	x0, [x19, #80]
    fd8000003930:	97fff7c0 	bl	fd8000001830 <vcpu_writereg>
    vcpu_writepc(cpu()->vcpu, vcpu_readpc(cpu()->vcpu) + 4);
    fd8000003934:	f9402a73 	ldr	x19, [x19, #80]
    fd8000003938:	aa1303e0 	mov	x0, x19
    fd800000393c:	97fff7c5 	bl	fd8000001850 <vcpu_readpc>
    fd8000003940:	aa0003e1 	mov	x1, x0
    fd8000003944:	aa1303e0 	mov	x0, x19
}
    fd8000003948:	f9400bf3 	ldr	x19, [sp, #16]
    vcpu_writepc(cpu()->vcpu, vcpu_readpc(cpu()->vcpu) + 4);
    fd800000394c:	91001021 	add	x1, x1, #0x4
}
    fd8000003950:	a8c27bfd 	ldp	x29, x30, [sp], #32
    vcpu_writepc(cpu()->vcpu, vcpu_readpc(cpu()->vcpu) + 4);
    fd8000003954:	17fff7c3 	b	fd8000001860 <vcpu_writepc>
    switch (fid & ~SMCC_FID_FN_NUM_MSK) {
    fd8000003958:	d2b8c002 	mov	x2, #0xc6000000            	// #3321888768
    fd800000395c:	eb02003f 	cmp	x1, x2
    fd8000003960:	54fffdc0 	b.eq	fd8000003918 <smc_handler+0x48>  // b.none
            WARNING("Unknown system call fid 0x%x", fid);
    fd8000003964:	90000002 	adrp	x2, fd8000003000 <cache_arch_enumerate+0x30>
    fd8000003968:	aa0003e1 	mov	x1, x0
    fd800000396c:	f944c440 	ldr	x0, [x2, #2440]
    fd8000003970:	94002384 	bl	fd800000c780 <console_printk>
    fd8000003974:	92800002 	mov	x2, #0xffffffffffffffff    	// #-1
    fd8000003978:	17ffffeb 	b	fd8000003924 <smc_handler+0x54>
            ret = standard_service_call(fid);
    fd800000397c:	97ffffa5 	bl	fd8000003810 <standard_service_call>
    fd8000003980:	aa0003e2 	mov	x2, x0
            break;
    fd8000003984:	17ffffe8 	b	fd8000003924 <smc_handler+0x54>
    fd8000003988:	00010638 	.word	0x00010638
    fd800000398c:	0000fd80 	.word	0x0000fd80

0000fd8000003990 <hvc_handler>:
{
    fd8000003990:	a9bf7bfd 	stp	x29, x30, [sp, #-16]!
    unsigned long fid = vcpu_readreg(cpu()->vcpu, 0);
    fd8000003994:	d2dfc000 	mov	x0, #0xfe0000000000        	// #279275953455104
    fd8000003998:	d2800001 	mov	x1, #0x0                   	// #0
{
    fd800000399c:	910003fd 	mov	x29, sp
    unsigned long fid = vcpu_readreg(cpu()->vcpu, 0);
    fd80000039a0:	f9402800 	ldr	x0, [x0, #80]
    fd80000039a4:	97fff79b 	bl	fd8000001810 <vcpu_readreg>
    switch (fid & ~SMCC_FID_FN_NUM_MSK) {
    fd80000039a8:	9270bc01 	and	x1, x0, #0xffffffffffff0000
    fd80000039ac:	d2b88002 	mov	x2, #0xc4000000            	// #3288334336
    fd80000039b0:	eb02003f 	cmp	x1, x2
    fd80000039b4:	540003a0 	b.eq	fd8000003a28 <hvc_handler+0x98>  // b.none
    fd80000039b8:	540001e8 	b.hi	fd80000039f4 <hvc_handler+0x64>  // b.pmore
    fd80000039bc:	d2b08002 	mov	x2, #0x84000000            	// #2214592512
    fd80000039c0:	eb02003f 	cmp	x1, x2
    fd80000039c4:	54000320 	b.eq	fd8000003a28 <hvc_handler+0x98>  // b.none
    fd80000039c8:	d2b0c002 	mov	x2, #0x86000000            	// #2248146944
    fd80000039cc:	eb02003f 	cmp	x1, x2
    fd80000039d0:	54000181 	b.ne	fd8000003a00 <hvc_handler+0x70>  // b.any
            ret = hypercall(fid & SMCC_FID_FN_NUM_MSK);
    fd80000039d4:	92403c00 	and	x0, x0, #0xffff
    fd80000039d8:	9400255a 	bl	fd800000cf40 <hypercall>
}
    fd80000039dc:	a8c17bfd 	ldp	x29, x30, [sp], #16
            ret = hypercall(fid & SMCC_FID_FN_NUM_MSK);
    fd80000039e0:	aa0003e2 	mov	x2, x0
    vcpu_writereg(cpu()->vcpu, 0, ret);
    fd80000039e4:	d2dfc000 	mov	x0, #0xfe0000000000        	// #279275953455104
    fd80000039e8:	d2800001 	mov	x1, #0x0                   	// #0
    fd80000039ec:	f9402800 	ldr	x0, [x0, #80]
    fd80000039f0:	17fff790 	b	fd8000001830 <vcpu_writereg>
    switch (fid & ~SMCC_FID_FN_NUM_MSK) {
    fd80000039f4:	d2b8c002 	mov	x2, #0xc6000000            	// #3321888768
    fd80000039f8:	eb02003f 	cmp	x1, x2
    fd80000039fc:	54fffec0 	b.eq	fd80000039d4 <hvc_handler+0x44>  // b.none
            WARNING("Unknown system call fid 0x%x", fid);
    fd8000003a00:	90000002 	adrp	x2, fd8000003000 <cache_arch_enumerate+0x30>
    fd8000003a04:	aa0003e1 	mov	x1, x0
    fd8000003a08:	f9452440 	ldr	x0, [x2, #2632]
    fd8000003a0c:	9400235d 	bl	fd800000c780 <console_printk>
}
    fd8000003a10:	a8c17bfd 	ldp	x29, x30, [sp], #16
    vcpu_writereg(cpu()->vcpu, 0, ret);
    fd8000003a14:	d2dfc000 	mov	x0, #0xfe0000000000        	// #279275953455104
            WARNING("Unknown system call fid 0x%x", fid);
    fd8000003a18:	92800002 	mov	x2, #0xffffffffffffffff    	// #-1
    vcpu_writereg(cpu()->vcpu, 0, ret);
    fd8000003a1c:	d2800001 	mov	x1, #0x0                   	// #0
    fd8000003a20:	f9402800 	ldr	x0, [x0, #80]
    fd8000003a24:	17fff783 	b	fd8000001830 <vcpu_writereg>
            ret = standard_service_call(fid);
    fd8000003a28:	97ffff7a 	bl	fd8000003810 <standard_service_call>
    fd8000003a2c:	aa0003e2 	mov	x2, x0
}
    fd8000003a30:	a8c17bfd 	ldp	x29, x30, [sp], #16
    vcpu_writereg(cpu()->vcpu, 0, ret);
    fd8000003a34:	d2dfc000 	mov	x0, #0xfe0000000000        	// #279275953455104
    fd8000003a38:	d2800001 	mov	x1, #0x0                   	// #0
    fd8000003a3c:	f9402800 	ldr	x0, [x0, #80]
    fd8000003a40:	17fff77c 	b	fd8000001830 <vcpu_writereg>
    fd8000003a44:	d503201f 	nop
    fd8000003a48:	00010638 	.word	0x00010638
    fd8000003a4c:	0000fd80 	.word	0x0000fd80

0000fd8000003a50 <aborts_sync_handler>:
SYSREG_GEN_ACCESSORS(esr_el2);
    fd8000003a50:	d53c5200 	mrs	x0, esr_el2
SYSREG_GEN_ACCESSORS(far_el2);
    fd8000003a54:	d53c6004 	mrs	x4, far_el2
SYSREG_GEN_ACCESSORS(hpfar_el2);
    fd8000003a58:	d53c6085 	mrs	x5, hpfar_el2

    unsigned long ec = bit64_extract(esr, ESR_EC_OFF, ESR_EC_LEN);
    unsigned long il = bit64_extract(esr, ESR_IL_OFF, ESR_IL_LEN);
    unsigned long iss = bit64_extract(esr, ESR_ISS_OFF, ESR_ISS_LEN);

    abort_handler_t handler = abort_handlers[ec];
    fd8000003a5c:	90000001 	adrp	x1, fd8000003000 <cache_arch_enumerate+0x30>
    fd8000003a60:	f9455426 	ldr	x6, [x1, #2728]
    fd8000003a64:	531a7c03 	lsr	w3, w0, #26
        ipa_fault_addr = (far & 0xFFF) | (hpfar << 8);
    fd8000003a68:	92402c84 	and	x4, x4, #0xfff
    fd8000003a6c:	d3596402 	ubfx	x2, x0, #25, #1
    fd8000003a70:	aa052081 	orr	x1, x4, x5, lsl #8
    abort_handler_t handler = abort_handlers[ec];
    fd8000003a74:	f86378c4 	ldr	x4, [x6, x3, lsl #3]
    if (handler) {
    fd8000003a78:	b4000084 	cbz	x4, fd8000003a88 <aborts_sync_handler+0x38>
    fd8000003a7c:	92406000 	and	x0, x0, #0x1ffffff
        handler(iss, ipa_fault_addr, il, ec);
    fd8000003a80:	aa0403f0 	mov	x16, x4
    fd8000003a84:	d61f0200 	br	x16
{
    fd8000003a88:	a9bf7bfd 	stp	x29, x30, [sp, #-16]!
    } else {
        ERROR("no handler for abort ec = 0x%x", ec); // unknown guest exception
    fd8000003a8c:	90000000 	adrp	x0, fd8000003000 <cache_arch_enumerate+0x30>
    fd8000003a90:	aa0303e1 	mov	x1, x3
{
    fd8000003a94:	910003fd 	mov	x29, sp
        ERROR("no handler for abort ec = 0x%x", ec); // unknown guest exception
    fd8000003a98:	f9455800 	ldr	x0, [x0, #2736]
    fd8000003a9c:	94002339 	bl	fd800000c780 <console_printk>
    fd8000003aa0:	14000000 	b	fd8000003aa0 <aborts_sync_handler+0x50>
    fd8000003aa4:	d503201f 	nop
    fd8000003aa8:	00012148 	.word	0x00012148
    fd8000003aac:	0000fd80 	.word	0x0000fd80
    fd8000003ab0:	00010668 	.word	0x00010668
    fd8000003ab4:	0000fd80 	.word	0x0000fd80
	...

0000fd8000003ac0 <cpu_arch_init>:
SYSREG_GEN_ACCESSORS(mpidr_el1);
    fd8000003ac0:	d53800a3 	mrs	x3, mpidr_el1
cpuid_t CPU_MASTER __attribute__((section(".data")));

/* Perform architecture dependent cpu cores initializations */
void cpu_arch_init(cpuid_t cpuid, paddr_t load_addr)
{
    cpu()->arch.mpidr = sysreg_mpidr_el1_read(); //provides an aditional PE identification
    fd8000003ac4:	d2dfc002 	mov	x2, #0xfe0000000000        	// #279275953455104
    fd8000003ac8:	f9017843 	str	x3, [x2, #752]
    cpu_arch_profile_init(cpuid, load_addr);
    fd8000003acc:	17fffc21 	b	fd8000002b50 <cpu_arch_profile_init>

0000fd8000003ad0 <cpu_id_to_mpidr>:
}

unsigned long cpu_id_to_mpidr(cpuid_t id)
{
    return platform_arch_cpuid_to_mpidr(&platform, id);
    fd8000003ad0:	90000002 	adrp	x2, fd8000003000 <cache_arch_enumerate+0x30>
    fd8000003ad4:	aa0003e1 	mov	x1, x0
    fd8000003ad8:	f9457040 	ldr	x0, [x2, #2784]
    fd8000003adc:	14000015 	b	fd8000003b30 <platform_arch_cpuid_to_mpidr>
    fd8000003ae0:	000129b0 	.word	0x000129b0
    fd8000003ae4:	0000fd80 	.word	0x0000fd80
    fd8000003ae8:	d503201f 	nop
    fd8000003aec:	d503201f 	nop

0000fd8000003af0 <cpu_arch_idle>:
}

void cpu_arch_idle()
{
    fd8000003af0:	a9bf7bfd 	stp	x29, x30, [sp, #-16]!
    fd8000003af4:	910003fd 	mov	x29, sp
    cpu_arch_profile_idle();
    fd8000003af8:	97fffc4a 	bl	fd8000002c20 <cpu_arch_profile_idle>
    /*
     * In case the profile implementation does not jump to a predefined wake-up point and just
     * returns from the profile, manually rewind stack and jump to idle wake up. Therefore, we
     * should not return after this point.
     */
    asm volatile("mov sp, %0\n\r"
    fd8000003afc:	d2840000 	mov	x0, #0x2000                	// #8192
    fd8000003b00:	f2dfc000 	movk	x0, #0xfe00, lsl #32
    fd8000003b04:	9100001f 	mov	sp, x0
    fd8000003b08:	14001e16 	b	fd800000b360 <cpu_idle_wakeup>
                 "b cpu_idle_wakeup\n\r" ::"r"(&cpu()->stack[STACK_SIZE]));

    ERROR("returned from idle wake up");
    fd8000003b0c:	90000000 	adrp	x0, fd8000003000 <cache_arch_enumerate+0x30>
    fd8000003b10:	f9459000 	ldr	x0, [x0, #2848]
    fd8000003b14:	9400231b 	bl	fd800000c780 <console_printk>
    fd8000003b18:	14000000 	b	fd8000003b18 <cpu_arch_idle+0x28>
    fd8000003b1c:	d503201f 	nop
    fd8000003b20:	00010698 	.word	0x00010698
    fd8000003b24:	0000fd80 	.word	0x0000fd80
	...

0000fd8000003b30 <platform_arch_cpuid_to_mpidr>:
#include <platform.h>
#include <arch/sysregs.h>

unsigned long platform_arch_cpuid_to_mpidr(const struct platform* plat, cpuid_t cpuid)
{
    if (cpuid > plat->cpu_num) {
    fd8000003b30:	f9400006 	ldr	x6, [x0]
    fd8000003b34:	eb0100df 	cmp	x6, x1
    fd8000003b38:	54000403 	b.cc	fd8000003bb8 <platform_arch_cpuid_to_mpidr+0x88>  // b.lo, b.ul, b.last
        return ~(~MPIDR_RES1 & MPIDR_RES0_MSK); // return an invlid mpidr by inverting res bits
    }

    unsigned long mpidr = 0;
    bool found = false;
    if (plat->arch.clusters.num > 0) {
    fd8000003b3c:	f9413804 	ldr	x4, [x0, #624]
    fd8000003b40:	b4000324 	cbz	x4, fd8000003ba4 <platform_arch_cpuid_to_mpidr+0x74>
        for (size_t i = 0, j = 0; i < plat->arch.clusters.num; i++) {
            if (cpuid < (j + plat->arch.clusters.core_num[i])) {
    fd8000003b44:	f9413c05 	ldr	x5, [x0, #632]
    fd8000003b48:	d2800002 	mov	x2, #0x0                   	// #0
    fd8000003b4c:	f94000a3 	ldr	x3, [x5]
    fd8000003b50:	eb03003f 	cmp	x1, x3
    fd8000003b54:	540000e2 	b.cs	fd8000003b70 <platform_arch_cpuid_to_mpidr+0x40>  // b.hs, b.nlast
    fd8000003b58:	14000011 	b	fd8000003b9c <platform_arch_cpuid_to_mpidr+0x6c>
    fd8000003b5c:	f86278a0 	ldr	x0, [x5, x2, lsl #3]
    fd8000003b60:	8b000060 	add	x0, x3, x0
    fd8000003b64:	eb01001f 	cmp	x0, x1
    fd8000003b68:	54000168 	b.hi	fd8000003b94 <platform_arch_cpuid_to_mpidr+0x64>  // b.pmore
    fd8000003b6c:	aa0003e3 	mov	x3, x0
        for (size_t i = 0, j = 0; i < plat->arch.clusters.num; i++) {
    fd8000003b70:	91000442 	add	x2, x2, #0x1
    fd8000003b74:	eb02009f 	cmp	x4, x2
    fd8000003b78:	54ffff21 	b.ne	fd8000003b5c <platform_arch_cpuid_to_mpidr+0x2c>  // b.any
{
    fd8000003b7c:	a9bf7bfd 	stp	x29, x30, [sp, #-16]!
    fd8000003b80:	910003fd 	mov	x29, sp

            j += plat->arch.clusters.core_num[i];
        }

        if (!found) {
            ERROR("failed cpuid to mpidr translation");
    fd8000003b84:	90000000 	adrp	x0, fd8000003000 <cache_arch_enumerate+0x30>
    fd8000003b88:	f945e400 	ldr	x0, [x0, #3016]
    fd8000003b8c:	940022fd 	bl	fd800000c780 <console_printk>
    fd8000003b90:	14000000 	b	fd8000003b90 <platform_arch_cpuid_to_mpidr+0x60>
                mpidr = (i << 8) | ((cpuid - j) & 0xff);
    fd8000003b94:	d378dc42 	lsl	x2, x2, #8
    fd8000003b98:	cb030021 	sub	x1, x1, x3
    fd8000003b9c:	92401c21 	and	x1, x1, #0xff
    fd8000003ba0:	aa020021 	orr	x1, x1, x2
         * No cluster information in configuration. Assume a singl cluster.
         */
        mpidr = cpuid;
    }

    mpidr |= MPIDR_RES1;
    fd8000003ba4:	f10004df 	cmp	x6, #0x1
    fd8000003ba8:	b2610020 	orr	x0, x1, #0x80000000
    fd8000003bac:	b2620421 	orr	x1, x1, #0xc0000000
    fd8000003bb0:	9a800020 	csel	x0, x1, x0, eq	// eq = none
    fd8000003bb4:	d65f03c0 	ret
        return ~(~MPIDR_RES1 & MPIDR_RES0_MSK); // return an invlid mpidr by inverting res bits
    fd8000003bb8:	929fffe0 	mov	x0, #0xffffffffffff0000    	// #-65536
    fd8000003bbc:	f2b7c000 	movk	x0, #0xbe00, lsl #16
    if (plat->cpu_num == 1) {
        mpidr |= MPIDR_U_BIT;
    }

    return mpidr;
}
    fd8000003bc0:	d65f03c0 	ret
    fd8000003bc4:	d503201f 	nop
    fd8000003bc8:	000106c0 	.word	0x000106c0
    fd8000003bcc:	0000fd80 	.word	0x0000fd80

0000fd8000003bd0 <gicd_init>:

volatile struct gicd_hw* gicd;
spinlock_t gicd_lock;

void gicd_init()
{
    fd8000003bd0:	a9bf7bfd 	stp	x29, x30, [sp, #-16]!
size_t gich_num_lrs();

static inline size_t gic_num_irqs()
{
    size_t itlinenumber = bit32_extract(gicd->TYPER, GICD_TYPER_ITLN_OFF, GICD_TYPER_ITLN_LEN);
    return 32 * itlinenumber + 1;
    fd8000003bd4:	d2800021 	mov	x1, #0x1                   	// #1
    fd8000003bd8:	910003fd 	mov	x29, sp
    size_t itlinenumber = bit32_extract(gicd->TYPER, GICD_TYPER_ITLN_OFF, GICD_TYPER_ITLN_LEN);
    fd8000003bdc:	90000000 	adrp	x0, fd8000003000 <cache_arch_enumerate+0x30>
    fd8000003be0:	f9465800 	ldr	x0, [x0, #3248]
    fd8000003be4:	f9400002 	ldr	x2, [x0]
    fd8000003be8:	b9400444 	ldr	w4, [x2, #4]
    return 32 * itlinenumber + 1;
    fd8000003bec:	d37b1084 	ubfiz	x4, x4, #5, #5
    size_t int_num = gic_num_irqs();

    /* Bring distributor to known state */
    for (size_t i = GIC_NUM_PRIVINT_REGS; i < GIC_NUM_INT_REGS(int_num); i++) {
    fd8000003bf0:	f100809f 	cmp	x4, #0x20
    fd8000003bf4:	8b010085 	add	x5, x4, x1
    fd8000003bf8:	540002a9 	b.ls	fd8000003c4c <gicd_init+0x7c>  // b.plast
    fd8000003bfc:	d345fc84 	lsr	x4, x4, #5
        /**
         * Make sure all interrupts are not enabled, non pending, non active.
         */
        gicd->IGROUPR[i] = -1;
    fd8000003c00:	12800003 	mov	w3, #0xffffffff            	// #-1
    fd8000003c04:	d503201f 	nop
    fd8000003c08:	8b010840 	add	x0, x2, x1, lsl #2
    for (size_t i = GIC_NUM_PRIVINT_REGS; i < GIC_NUM_INT_REGS(int_num); i++) {
    fd8000003c0c:	91000421 	add	x1, x1, #0x1
    fd8000003c10:	eb04003f 	cmp	x1, x4
        gicd->IGROUPR[i] = -1;
    fd8000003c14:	b9008003 	str	w3, [x0, #128]
        gicd->ICENABLER[i] = -1;
    fd8000003c18:	b9018003 	str	w3, [x0, #384]
        gicd->ICPENDR[i] = -1;
    fd8000003c1c:	b9028003 	str	w3, [x0, #640]
        gicd->ICACTIVER[i] = -1;
    fd8000003c20:	b9038003 	str	w3, [x0, #896]
    for (size_t i = GIC_NUM_PRIVINT_REGS; i < GIC_NUM_INT_REGS(int_num); i++) {
    fd8000003c24:	54ffff21 	b.ne	fd8000003c08 <gicd_init+0x38>  // b.any
    }

    /* All interrupts have lowest priority possible by default */
    for (size_t i = GIC_NUM_PRIO_REGS(GIC_CPU_PRIV); i < GIC_NUM_PRIO_REGS(int_num); i++) {
    fd8000003c28:	d342fca3 	lsr	x3, x5, #2
    fd8000003c2c:	d2800100 	mov	x0, #0x8                   	// #8
        gicd->IPRIORITYR[i] = -1;
    fd8000003c30:	12800004 	mov	w4, #0xffffffff            	// #-1
    fd8000003c34:	d503201f 	nop
    fd8000003c38:	8b000841 	add	x1, x2, x0, lsl #2
    for (size_t i = GIC_NUM_PRIO_REGS(GIC_CPU_PRIV); i < GIC_NUM_PRIO_REGS(int_num); i++) {
    fd8000003c3c:	91000400 	add	x0, x0, #0x1
    fd8000003c40:	eb03001f 	cmp	x0, x3
        gicd->IPRIORITYR[i] = -1;
    fd8000003c44:	b9040024 	str	w4, [x1, #1024]
    for (size_t i = GIC_NUM_PRIO_REGS(GIC_CPU_PRIV); i < GIC_NUM_PRIO_REGS(int_num); i++) {
    fd8000003c48:	54ffff81 	b.ne	fd8000003c38 <gicd_init+0x68>  // b.any

        /* Enable distributor */
        gicd->CTLR |= GICD_CTLR_EN_BIT;

    } else {
        for (size_t i = GIC_CPU_PRIV; i < GIC_MAX_INTERUPTS; i++) {
    fd8000003c4c:	d2800400 	mov	x0, #0x20                  	// #32
            gicd->IROUTER[i] = GICD_IROUTER_INV;
    fd8000003c50:	929fffe3 	mov	x3, #0xffffffffffff0000    	// #-65536
    fd8000003c54:	d503201f 	nop
    fd8000003c58:	8b000c41 	add	x1, x2, x0, lsl #3
        for (size_t i = GIC_CPU_PRIV; i < GIC_MAX_INTERUPTS; i++) {
    fd8000003c5c:	91000400 	add	x0, x0, #0x1
    fd8000003c60:	f110001f 	cmp	x0, #0x400
            gicd->IROUTER[i] = GICD_IROUTER_INV;
    fd8000003c64:	f9300023 	str	x3, [x1, #24576]
        for (size_t i = GIC_CPU_PRIV; i < GIC_MAX_INTERUPTS; i++) {
    fd8000003c68:	54ffff81 	b.ne	fd8000003c58 <gicd_init+0x88>  // b.any

    /* ICFGR are platform dependent, lets leave them as is */

    /* No need to setup gicd->NSACR as all interrupts are  setup to group 1 */

    if (!interrupts_reserve(platform.arch.gic.maintenance_id, gic_maintenance_handler)) {
    fd8000003c6c:	90000000 	adrp	x0, fd8000003000 <cache_arch_enumerate+0x30>
    fd8000003c70:	f9466000 	ldr	x0, [x0, #3264]
    fd8000003c74:	90000001 	adrp	x1, fd8000003000 <cache_arch_enumerate+0x30>
        gicd->CTLR |= GICD_CTLR_ARE_NS_BIT | GICD_CTLR_ENA_BIT;
    fd8000003c78:	b9400043 	ldr	w3, [x2]
    fd8000003c7c:	52800244 	mov	w4, #0x12                  	// #18
    if (!interrupts_reserve(platform.arch.gic.maintenance_id, gic_maintenance_handler)) {
    fd8000003c80:	f9465c21 	ldr	x1, [x1, #3256]
        gicd->CTLR |= GICD_CTLR_ARE_NS_BIT | GICD_CTLR_ENA_BIT;
    fd8000003c84:	2a040063 	orr	w3, w3, w4
    if (!interrupts_reserve(platform.arch.gic.maintenance_id, gic_maintenance_handler)) {
    fd8000003c88:	b9425000 	ldr	w0, [x0, #592]
        gicd->CTLR |= GICD_CTLR_ARE_NS_BIT | GICD_CTLR_ENA_BIT;
    fd8000003c8c:	b9000043 	str	w3, [x2]
    if (!interrupts_reserve(platform.arch.gic.maintenance_id, gic_maintenance_handler)) {
    fd8000003c90:	94001c4c 	bl	fd800000adc0 <interrupts_reserve>
    fd8000003c94:	36000060 	tbz	w0, #0, fd8000003ca0 <gicd_init+0xd0>
        ERROR("Failed to reserve GIC maintenance interrupt");
    }
}
    fd8000003c98:	a8c17bfd 	ldp	x29, x30, [sp], #16
    fd8000003c9c:	d65f03c0 	ret
        ERROR("Failed to reserve GIC maintenance interrupt");
    fd8000003ca0:	90000000 	adrp	x0, fd8000003000 <cache_arch_enumerate+0x30>
    fd8000003ca4:	f9466400 	ldr	x0, [x0, #3272]
    fd8000003ca8:	940022b6 	bl	fd800000c780 <console_printk>
    fd8000003cac:	14000000 	b	fd8000003cac <gicd_init+0xdc>
    fd8000003cb0:	00013070 	.word	0x00013070
    fd8000003cb4:	0000fd80 	.word	0x0000fd80
    fd8000003cb8:	000065e0 	.word	0x000065e0
    fd8000003cbc:	0000fd80 	.word	0x0000fd80
    fd8000003cc0:	000129b0 	.word	0x000129b0
    fd8000003cc4:	0000fd80 	.word	0x0000fd80
    fd8000003cc8:	000106f0 	.word	0x000106f0
    fd8000003ccc:	0000fd80 	.word	0x0000fd80

0000fd8000003cd0 <gicd_supports_LPIs>:

void gic_map_mmio();

bool gicd_supports_LPIs(){

    return (gicd->TYPER & 0x20000) ? true: false;
    fd8000003cd0:	90000000 	adrp	x0, fd8000003000 <cache_arch_enumerate+0x30>
    fd8000003cd4:	f9467400 	ldr	x0, [x0, #3304]
    fd8000003cd8:	f9400000 	ldr	x0, [x0]
    fd8000003cdc:	b9400400 	ldr	w0, [x0, #4]
    fd8000003ce0:	d3514400 	ubfx	x0, x0, #17, #1
}
    fd8000003ce4:	d65f03c0 	ret
    fd8000003ce8:	00013070 	.word	0x00013070
    fd8000003cec:	0000fd80 	.word	0x0000fd80

0000fd8000003cf0 <gic_init>:

void gic_init()
{
    fd8000003cf0:	a9bd7bfd 	stp	x29, x30, [sp, #-48]!
SYSREG_GEN_ACCESSORS(icc_sre_el2);
    fd8000003cf4:	d2800120 	mov	x0, #0x9                   	// #9
    fd8000003cf8:	910003fd 	mov	x29, sp
    fd8000003cfc:	a90153f3 	stp	x19, x20, [sp, #16]
    fd8000003d00:	a9025bf5 	stp	x21, x22, [sp, #32]
    fd8000003d04:	d51cc9a0 	msr	icc_sre_el2, x0
    if (GIC_VERSION == GICV3) {
        sysreg_icc_sre_el2_write(ICC_SRE_SRE_BIT | ICC_SRE_ENB_BIT);    //Enable the system register interface and enable el1 access to icc_sre_el1
        ISB();
    fd8000003d08:	d5033fdf 	isb
    }

    if (cpu()->id == CPU_MASTER) {
    fd8000003d0c:	90000000 	adrp	x0, fd8000003000 <cache_arch_enumerate+0x30>
    fd8000003d10:	f9479415 	ldr	x21, [x0, #3880]
    fd8000003d14:	d2dfc000 	mov	x0, #0xfe0000000000        	// #279275953455104
    fd8000003d18:	f9400001 	ldr	x1, [x0]
    fd8000003d1c:	f94002a0 	ldr	x0, [x21]
    fd8000003d20:	eb00003f 	cmp	x1, x0
    fd8000003d24:	54000ba0 	b.eq	fd8000003e98 <gic_init+0x1a8>  // b.none
    while (!token->ready) { }
    fd8000003d28:	90000000 	adrp	x0, fd8000003000 <cache_arch_enumerate+0x30>
    fd8000003d2c:	f9479c13 	ldr	x19, [x0, #3896]
    fd8000003d30:	39404260 	ldrb	w0, [x19, #16]
    fd8000003d34:	3607ffe0 	tbz	w0, #0, fd8000003d30 <gic_init+0x40>
    __asm__ volatile(
    fd8000003d38:	91001263 	add	x3, x19, #0x4
    fd8000003d3c:	885ffe60 	ldaxr	w0, [x19]
    fd8000003d40:	11000401 	add	w1, w0, #0x1
    fd8000003d44:	88027e61 	stxr	w2, w1, [x19]
    fd8000003d48:	35ffffa2 	cbnz	w2, fd8000003d3c <gic_init+0x4c>
    fd8000003d4c:	88dffc61 	ldar	w1, [x3]
    fd8000003d50:	6b01001f 	cmp	w0, w1
    fd8000003d54:	54000060 	b.eq	fd8000003d60 <gic_init+0x70>  // b.none
    fd8000003d58:	d503205f 	wfe
    fd8000003d5c:	17fffffc 	b	fd8000003d4c <gic_init+0x5c>
    token->count++;
    fd8000003d60:	f9400e60 	ldr	x0, [x19, #24]
    fd8000003d64:	91000400 	add	x0, x0, #0x1
    fd8000003d68:	f9000e60 	str	x0, [x19, #24]
    next_count = ALIGN(token->count, token->n);
    fd8000003d6c:	f9400e74 	ldr	x20, [x19, #24]
    fd8000003d70:	f9400660 	ldr	x0, [x19, #8]
    fd8000003d74:	f9400661 	ldr	x1, [x19, #8]
    fd8000003d78:	8b000294 	add	x20, x20, x0
    fd8000003d7c:	d1000694 	sub	x20, x20, #0x1
    fd8000003d80:	f9400660 	ldr	x0, [x19, #8]
    fd8000003d84:	9ac10a94 	udiv	x20, x20, x1
    fd8000003d88:	9b007e94 	mul	x20, x20, x0
    __asm__ volatile(
    fd8000003d8c:	b9400060 	ldr	w0, [x3]
    fd8000003d90:	11000400 	add	w0, w0, #0x1
    fd8000003d94:	889ffc60 	stlr	w0, [x3]
    fd8000003d98:	d5033b9f 	dsb	ish
    fd8000003d9c:	d503209f 	sev
        if (!cpu()->handling_msgs) {
    fd8000003da0:	d2dfc016 	mov	x22, #0xfe0000000000        	// #279275953455104
    while (token->count < next_count) {
    fd8000003da4:	f9400e61 	ldr	x1, [x19, #24]
        if (!cpu()->handling_msgs) {
    fd8000003da8:	394022c0 	ldrb	w0, [x22, #8]
    while (token->count < next_count) {
    fd8000003dac:	eb01029f 	cmp	x20, x1
        if (!cpu()->handling_msgs) {
    fd8000003db0:	12000001 	and	w1, w0, #0x1
    while (token->count < next_count) {
    fd8000003db4:	540000c9 	b.ls	fd8000003dcc <gic_init+0xdc>  // b.plast
        if (!cpu()->handling_msgs) {
    fd8000003db8:	36000680 	tbz	w0, #0, fd8000003e88 <gic_init+0x198>
    fd8000003dbc:	d503201f 	nop
    while (token->count < next_count) {
    fd8000003dc0:	f9400e60 	ldr	x0, [x19, #24]
    fd8000003dc4:	eb00029f 	cmp	x20, x0
    fd8000003dc8:	54ffffc8 	b.hi	fd8000003dc0 <gic_init+0xd0>  // b.pmore
    if (!cpu()->handling_msgs) {
    fd8000003dcc:	34000621 	cbz	w1, fd8000003e90 <gic_init+0x1a0>
    while (!token->ready) { }
    fd8000003dd0:	39404260 	ldrb	w0, [x19, #16]
    fd8000003dd4:	3607ffe0 	tbz	w0, #0, fd8000003dd0 <gic_init+0xe0>
    __asm__ volatile(
    fd8000003dd8:	91001263 	add	x3, x19, #0x4
    fd8000003ddc:	885ffe60 	ldaxr	w0, [x19]
    fd8000003de0:	11000401 	add	w1, w0, #0x1
    fd8000003de4:	88027e61 	stxr	w2, w1, [x19]
    fd8000003de8:	35ffffa2 	cbnz	w2, fd8000003ddc <gic_init+0xec>
    fd8000003dec:	88dffc61 	ldar	w1, [x3]
    fd8000003df0:	6b01001f 	cmp	w0, w1
    fd8000003df4:	54000060 	b.eq	fd8000003e00 <gic_init+0x110>  // b.none
    fd8000003df8:	d503205f 	wfe
    fd8000003dfc:	17fffffc 	b	fd8000003dec <gic_init+0xfc>
    token->count++;
